
kernel.elf:     file format elf32-i386


Disassembly of section .text:

00100000 <__code>:
  100000:	02 b0 ad 1b 03 00    	add    0x31bad(%eax),%dh
  100006:	00 00                	add    %al,(%eax)
  100008:	fb                   	sti
  100009:	4f                   	dec    %edi
  10000a:	52                   	push   %edx
  10000b:	e4 00                	in     $0x0,%al
  10000d:	00 10                	add    %dl,(%eax)
  10000f:	00 00                	add    %al,(%eax)
  100011:	00 10                	add    %dl,(%eax)
  100013:	00 00                	add    %al,(%eax)
  100015:	60                   	pusha
  100016:	10 00                	adc    %al,(%eax)
  100018:	00 80 10 00 20 00    	add    %al,0x200010(%eax)
  10001e:	10 00                	adc    %al,(%eax)

00100020 <start>:
  100020:	e8 10 00 00 00       	call   100035 <main>

00100025 <main_infinit_loop>:
  100025:	f4                   	hlt
  100026:	eb fd                	jmp    100025 <main_infinit_loop>

00100028 <example_func>:
  100028:	54                   	push   %esp
  100029:	e8 5f 07 00 00       	call   10078d <kprint_hex>
  10002e:	5c                   	pop    %esp
  10002f:	e8 5e 0d 00 00       	call   100d92 <kprintln>
  100034:	c3                   	ret

00100035 <main>:
  100035:	8d 4c 24 04          	lea    0x4(%esp),%ecx
  100039:	83 e4 f0             	and    $0xfffffff0,%esp
  10003c:	ff 71 fc             	push   -0x4(%ecx)
  10003f:	55                   	push   %ebp
  100040:	89 e5                	mov    %esp,%ebp
  100042:	51                   	push   %ecx
  100043:	83 ec 04             	sub    $0x4,%esp
  100046:	c7 05 24 6e 10 00 00 	movl   $0x0,0x106e24
  10004d:	00 00 00 
  100050:	e8 b3 0e 00 00       	call   100f08 <init_gdt>
  100055:	e8 3f 10 00 00       	call   101099 <isr_install>
  10005a:	e8 c5 15 00 00       	call   101624 <irq_install>
  10005f:	e8 63 28 00 00       	call   1028c7 <init_memory>
  100064:	83 ec 0c             	sub    $0xc,%esp
  100067:	68 70 50 10 00       	push   $0x105070
  10006c:	e8 d4 0b 00 00       	call   100c45 <kprintf>
  100071:	83 c4 10             	add    $0x10,%esp
  100074:	e8 5b 16 00 00       	call   1016d4 <initialise_syscalls>
  100079:	e8 98 2f 00 00       	call   103016 <init_task>
  10007e:	90                   	nop
  10007f:	8b 4d fc             	mov    -0x4(%ebp),%ecx
  100082:	c9                   	leave
  100083:	8d 61 fc             	lea    -0x4(%ecx),%esp
  100086:	c3                   	ret

00100087 <user_input>:
  100087:	55                   	push   %ebp
  100088:	89 e5                	mov    %esp,%ebp
  10008a:	83 ec 28             	sub    $0x28,%esp
  10008d:	83 ec 08             	sub    $0x8,%esp
  100090:	68 d9 50 10 00       	push   $0x1050d9
  100095:	ff 75 08             	push   0x8(%ebp)
  100098:	e8 ed 1c 00 00       	call   101d8a <strcmp>
  10009d:	83 c4 10             	add    $0x10,%esp
  1000a0:	85 c0                	test   %eax,%eax
  1000a2:	75 05                	jne    1000a9 <user_input+0x22>
  1000a4:	e8 b6 2c 00 00       	call   102d5f <set_lock>
  1000a9:	83 ec 08             	sub    $0x8,%esp
  1000ac:	68 de 50 10 00       	push   $0x1050de
  1000b1:	ff 75 08             	push   0x8(%ebp)
  1000b4:	e8 d1 1c 00 00       	call   101d8a <strcmp>
  1000b9:	83 c4 10             	add    $0x10,%esp
  1000bc:	85 c0                	test   %eax,%eax
  1000be:	75 0a                	jne    1000ca <user_input+0x43>
  1000c0:	e8 02 2e 00 00       	call   102ec7 <start_sync_test>
  1000c5:	e9 36 02 00 00       	jmp    100300 <user_input+0x279>
  1000ca:	83 ec 08             	sub    $0x8,%esp
  1000cd:	68 e3 50 10 00       	push   $0x1050e3
  1000d2:	ff 75 08             	push   0x8(%ebp)
  1000d5:	e8 b0 1c 00 00       	call   101d8a <strcmp>
  1000da:	83 c4 10             	add    $0x10,%esp
  1000dd:	85 c0                	test   %eax,%eax
  1000df:	75 16                	jne    1000f7 <user_input+0x70>
  1000e1:	83 ec 0c             	sub    $0xc,%esp
  1000e4:	68 e7 50 10 00       	push   $0x1050e7
  1000e9:	e8 57 0b 00 00       	call   100c45 <kprintf>
  1000ee:	83 c4 10             	add    $0x10,%esp
  1000f1:	f4                   	hlt
  1000f2:	e9 09 02 00 00       	jmp    100300 <user_input+0x279>
  1000f7:	83 ec 08             	sub    $0x8,%esp
  1000fa:	68 ff 50 10 00       	push   $0x1050ff
  1000ff:	ff 75 08             	push   0x8(%ebp)
  100102:	e8 83 1c 00 00       	call   101d8a <strcmp>
  100107:	83 c4 10             	add    $0x10,%esp
  10010a:	85 c0                	test   %eax,%eax
  10010c:	0f 85 d7 00 00 00    	jne    1001e9 <user_input+0x162>
  100112:	c7 45 e0 00 00 00 00 	movl   $0x0,-0x20(%ebp)
  100119:	c7 45 f4 03 00 00 00 	movl   $0x3,-0xc(%ebp)
  100120:	83 ec 0c             	sub    $0xc,%esp
  100123:	68 00 10 00 00       	push   $0x1000
  100128:	e8 11 17 00 00       	call   10183e <kmalloc>
  10012d:	83 c4 10             	add    $0x10,%esp
  100130:	89 45 e0             	mov    %eax,-0x20(%ebp)
  100133:	e9 a2 00 00 00       	jmp    1001da <user_input+0x153>
  100138:	83 ec 0c             	sub    $0xc,%esp
  10013b:	68 00 10 00 00       	push   $0x1000
  100140:	e8 f9 16 00 00       	call   10183e <kmalloc>
  100145:	83 c4 10             	add    $0x10,%esp
  100148:	89 45 e0             	mov    %eax,-0x20(%ebp)
  10014b:	83 7d e0 00          	cmpl   $0x0,-0x20(%ebp)
  10014f:	75 15                	jne    100166 <user_input+0xdf>
  100151:	83 ec 0c             	sub    $0xc,%esp
  100154:	68 04 51 10 00       	push   $0x105104
  100159:	e8 e7 0a 00 00       	call   100c45 <kprintf>
  10015e:	83 c4 10             	add    $0x10,%esp
  100161:	e9 ad 01 00 00       	jmp    100313 <user_input+0x28c>
  100166:	83 ec 08             	sub    $0x8,%esp
  100169:	ff 75 e0             	push   -0x20(%ebp)
  10016c:	68 1a 51 10 00       	push   $0x10511a
  100171:	e8 cf 0a 00 00       	call   100c45 <kprintf>
  100176:	83 c4 10             	add    $0x10,%esp
  100179:	83 ec 0c             	sub    $0xc,%esp
  10017c:	68 00 10 00 00       	push   $0x1000
  100181:	e8 b8 16 00 00       	call   10183e <kmalloc>
  100186:	83 c4 10             	add    $0x10,%esp
  100189:	89 45 dc             	mov    %eax,-0x24(%ebp)
  10018c:	83 7d dc 00          	cmpl   $0x0,-0x24(%ebp)
  100190:	75 15                	jne    1001a7 <user_input+0x120>
  100192:	83 ec 0c             	sub    $0xc,%esp
  100195:	68 04 51 10 00       	push   $0x105104
  10019a:	e8 a6 0a 00 00       	call   100c45 <kprintf>
  10019f:	83 c4 10             	add    $0x10,%esp
  1001a2:	e9 6c 01 00 00       	jmp    100313 <user_input+0x28c>
  1001a7:	83 ec 08             	sub    $0x8,%esp
  1001aa:	ff 75 e0             	push   -0x20(%ebp)
  1001ad:	68 1a 51 10 00       	push   $0x10511a
  1001b2:	e8 8e 0a 00 00       	call   100c45 <kprintf>
  1001b7:	83 c4 10             	add    $0x10,%esp
  1001ba:	83 ec 0c             	sub    $0xc,%esp
  1001bd:	ff 75 e0             	push   -0x20(%ebp)
  1001c0:	e8 c2 16 00 00       	call   101887 <kfree>
  1001c5:	83 c4 10             	add    $0x10,%esp
  1001c8:	83 ec 0c             	sub    $0xc,%esp
  1001cb:	ff 75 dc             	push   -0x24(%ebp)
  1001ce:	e8 b4 16 00 00       	call   101887 <kfree>
  1001d3:	83 c4 10             	add    $0x10,%esp
  1001d6:	83 6d f4 01          	subl   $0x1,-0xc(%ebp)
  1001da:	83 7d f4 00          	cmpl   $0x0,-0xc(%ebp)
  1001de:	0f 89 54 ff ff ff    	jns    100138 <user_input+0xb1>
  1001e4:	e9 17 01 00 00       	jmp    100300 <user_input+0x279>
  1001e9:	83 ec 08             	sub    $0x8,%esp
  1001ec:	68 29 51 10 00       	push   $0x105129
  1001f1:	ff 75 08             	push   0x8(%ebp)
  1001f4:	e8 91 1b 00 00       	call   101d8a <strcmp>
  1001f9:	83 c4 10             	add    $0x10,%esp
  1001fc:	85 c0                	test   %eax,%eax
  1001fe:	0f 85 a4 00 00 00    	jne    1002a8 <user_input+0x221>
  100204:	83 ec 08             	sub    $0x8,%esp
  100207:	6a 01                	push   $0x1
  100209:	68 00 04 00 00       	push   $0x400
  10020e:	e8 44 16 00 00       	call   101857 <kmalloc_a>
  100213:	83 c4 10             	add    $0x10,%esp
  100216:	89 45 ec             	mov    %eax,-0x14(%ebp)
  100219:	83 ec 08             	sub    $0x8,%esp
  10021c:	ff 75 ec             	push   -0x14(%ebp)
  10021f:	68 1a 51 10 00       	push   $0x10511a
  100224:	e8 1c 0a 00 00       	call   100c45 <kprintf>
  100229:	83 c4 10             	add    $0x10,%esp
  10022c:	83 ec 08             	sub    $0x8,%esp
  10022f:	6a 01                	push   $0x1
  100231:	68 00 04 00 00       	push   $0x400
  100236:	e8 1c 16 00 00       	call   101857 <kmalloc_a>
  10023b:	83 c4 10             	add    $0x10,%esp
  10023e:	89 45 e8             	mov    %eax,-0x18(%ebp)
  100241:	83 ec 08             	sub    $0x8,%esp
  100244:	ff 75 e8             	push   -0x18(%ebp)
  100247:	68 1a 51 10 00       	push   $0x10511a
  10024c:	e8 f4 09 00 00       	call   100c45 <kprintf>
  100251:	83 c4 10             	add    $0x10,%esp
  100254:	83 ec 0c             	sub    $0xc,%esp
  100257:	ff 75 ec             	push   -0x14(%ebp)
  10025a:	e8 28 16 00 00       	call   101887 <kfree>
  10025f:	83 c4 10             	add    $0x10,%esp
  100262:	83 ec 0c             	sub    $0xc,%esp
  100265:	ff 75 e8             	push   -0x18(%ebp)
  100268:	e8 1a 16 00 00       	call   101887 <kfree>
  10026d:	83 c4 10             	add    $0x10,%esp
  100270:	83 ec 08             	sub    $0x8,%esp
  100273:	6a 01                	push   $0x1
  100275:	68 00 04 00 00       	push   $0x400
  10027a:	e8 d8 15 00 00       	call   101857 <kmalloc_a>
  10027f:	83 c4 10             	add    $0x10,%esp
  100282:	89 45 e4             	mov    %eax,-0x1c(%ebp)
  100285:	83 ec 08             	sub    $0x8,%esp
  100288:	ff 75 e4             	push   -0x1c(%ebp)
  10028b:	68 1a 51 10 00       	push   $0x10511a
  100290:	e8 b0 09 00 00       	call   100c45 <kprintf>
  100295:	83 c4 10             	add    $0x10,%esp
  100298:	83 ec 0c             	sub    $0xc,%esp
  10029b:	ff 75 e4             	push   -0x1c(%ebp)
  10029e:	e8 e4 15 00 00       	call   101887 <kfree>
  1002a3:	83 c4 10             	add    $0x10,%esp
  1002a6:	eb 58                	jmp    100300 <user_input+0x279>
  1002a8:	83 ec 08             	sub    $0x8,%esp
  1002ab:	68 2e 51 10 00       	push   $0x10512e
  1002b0:	ff 75 08             	push   0x8(%ebp)
  1002b3:	e8 d2 1a 00 00       	call   101d8a <strcmp>
  1002b8:	83 c4 10             	add    $0x10,%esp
  1002bb:	85 c0                	test   %eax,%eax
  1002bd:	75 41                	jne    100300 <user_input+0x279>
  1002bf:	c7 45 f0 00 00 00 00 	movl   $0x0,-0x10(%ebp)
  1002c6:	eb 32                	jmp    1002fa <user_input+0x273>
  1002c8:	83 ec 0c             	sub    $0xc,%esp
  1002cb:	68 32 51 10 00       	push   $0x105132
  1002d0:	e8 70 09 00 00       	call   100c45 <kprintf>
  1002d5:	83 c4 10             	add    $0x10,%esp
  1002d8:	a1 c0 4e 10 00       	mov    0x104ec0,%eax
  1002dd:	c7 00 01 00 00 00    	movl   $0x1,(%eax)
  1002e3:	a1 c0 4e 10 00       	mov    0x104ec0,%eax
  1002e8:	89 c2                	mov    %eax,%edx
  1002ea:	a1 c4 4e 10 00       	mov    0x104ec4,%eax
  1002ef:	01 d0                	add    %edx,%eax
  1002f1:	a3 c0 4e 10 00       	mov    %eax,0x104ec0
  1002f6:	83 45 f0 01          	addl   $0x1,-0x10(%ebp)
  1002fa:	83 7d f0 63          	cmpl   $0x63,-0x10(%ebp)
  1002fe:	7e c8                	jle    1002c8 <user_input+0x241>
  100300:	83 ec 08             	sub    $0x8,%esp
  100303:	ff 75 08             	push   0x8(%ebp)
  100306:	68 50 51 10 00       	push   $0x105150
  10030b:	e8 35 09 00 00       	call   100c45 <kprintf>
  100310:	83 c4 10             	add    $0x10,%esp
  100313:	c9                   	leave
  100314:	c3                   	ret
  100315:	66 90                	xchg   %ax,%ax
  100317:	66 90                	xchg   %ax,%ax
  100319:	66 90                	xchg   %ax,%ax
  10031b:	66 90                	xchg   %ax,%ax
  10031d:	66 90                	xchg   %ax,%ax
  10031f:	90                   	nop

00100320 <interrupt_exit>:
  100320:	58                   	pop    %eax
  100321:	8e d8                	mov    %eax,%ds
  100323:	8e c0                	mov    %eax,%es
  100325:	8e e0                	mov    %eax,%fs
  100327:	8e e8                	mov    %eax,%gs
  100329:	61                   	popa
  10032a:	83 c4 08             	add    $0x8,%esp
  10032d:	fb                   	sti
  10032e:	cf                   	iret

0010032f <isr_common_stub>:
  10032f:	60                   	pusha
  100330:	66 8c d8             	mov    %ds,%ax
  100333:	50                   	push   %eax
  100334:	66 b8 10 00          	mov    $0x10,%ax
  100338:	8e d8                	mov    %eax,%ds
  10033a:	8e c0                	mov    %eax,%es
  10033c:	8e e0                	mov    %eax,%fs
  10033e:	8e e8                	mov    %eax,%gs
  100340:	54                   	push   %esp
  100341:	fc                   	cld
  100342:	e8 ab 11 00 00       	call   1014f2 <isr_handler>
  100347:	58                   	pop    %eax
  100348:	eb d6                	jmp    100320 <interrupt_exit>
  10034a:	58                   	pop    %eax
  10034b:	8e d8                	mov    %eax,%ds
  10034d:	8e c0                	mov    %eax,%es
  10034f:	8e e0                	mov    %eax,%fs
  100351:	8e e8                	mov    %eax,%gs
  100353:	61                   	popa
  100354:	83 c4 08             	add    $0x8,%esp
  100357:	cf                   	iret

00100358 <irq_common_stub>:
  100358:	60                   	pusha
  100359:	66 8c d8             	mov    %ds,%ax
  10035c:	50                   	push   %eax
  10035d:	66 b8 10 00          	mov    $0x10,%ax
  100361:	8e d8                	mov    %eax,%ds
  100363:	8e c0                	mov    %eax,%es
  100365:	8e e0                	mov    %eax,%fs
  100367:	8e e8                	mov    %eax,%gs
  100369:	54                   	push   %esp
  10036a:	fc                   	cld
  10036b:	e8 50 12 00 00       	call   1015c0 <irq_handler>
  100370:	5b                   	pop    %ebx
  100371:	5b                   	pop    %ebx
  100372:	8e db                	mov    %ebx,%ds
  100374:	8e c3                	mov    %ebx,%es
  100376:	8e e3                	mov    %ebx,%fs
  100378:	8e eb                	mov    %ebx,%gs
  10037a:	61                   	popa
  10037b:	83 c4 08             	add    $0x8,%esp
  10037e:	cf                   	iret

0010037f <isr0>:
  10037f:	fa                   	cli
  100380:	6a 00                	push   $0x0
  100382:	6a 00                	push   $0x0
  100384:	eb a9                	jmp    10032f <isr_common_stub>

00100386 <isr1>:
  100386:	fa                   	cli
  100387:	6a 00                	push   $0x0
  100389:	6a 01                	push   $0x1
  10038b:	eb a2                	jmp    10032f <isr_common_stub>

0010038d <isr2>:
  10038d:	fa                   	cli
  10038e:	6a 00                	push   $0x0
  100390:	6a 02                	push   $0x2
  100392:	eb 9b                	jmp    10032f <isr_common_stub>

00100394 <isr3>:
  100394:	fa                   	cli
  100395:	6a 00                	push   $0x0
  100397:	6a 03                	push   $0x3
  100399:	eb 94                	jmp    10032f <isr_common_stub>

0010039b <isr4>:
  10039b:	6a 00                	push   $0x0
  10039d:	6a 04                	push   $0x4
  10039f:	eb 8e                	jmp    10032f <isr_common_stub>

001003a1 <isr5>:
  1003a1:	6a 00                	push   $0x0
  1003a3:	6a 05                	push   $0x5
  1003a5:	eb 88                	jmp    10032f <isr_common_stub>

001003a7 <isr6>:
  1003a7:	6a 00                	push   $0x0
  1003a9:	6a 06                	push   $0x6
  1003ab:	eb 82                	jmp    10032f <isr_common_stub>

001003ad <isr7>:
  1003ad:	6a 00                	push   $0x0
  1003af:	6a 07                	push   $0x7
  1003b1:	e9 79 ff ff ff       	jmp    10032f <isr_common_stub>

001003b6 <isr8>:
  1003b6:	6a 08                	push   $0x8
  1003b8:	e9 72 ff ff ff       	jmp    10032f <isr_common_stub>

001003bd <isr9>:
  1003bd:	6a 00                	push   $0x0
  1003bf:	6a 09                	push   $0x9
  1003c1:	e9 69 ff ff ff       	jmp    10032f <isr_common_stub>

001003c6 <isr10>:
  1003c6:	6a 0a                	push   $0xa
  1003c8:	e9 62 ff ff ff       	jmp    10032f <isr_common_stub>

001003cd <isr11>:
  1003cd:	6a 0b                	push   $0xb
  1003cf:	e9 5b ff ff ff       	jmp    10032f <isr_common_stub>

001003d4 <isr12>:
  1003d4:	6a 0c                	push   $0xc
  1003d6:	e9 54 ff ff ff       	jmp    10032f <isr_common_stub>

001003db <isr13>:
  1003db:	6a 0d                	push   $0xd
  1003dd:	e9 4d ff ff ff       	jmp    10032f <isr_common_stub>

001003e2 <isr14>:
  1003e2:	6a 0e                	push   $0xe
  1003e4:	e9 46 ff ff ff       	jmp    10032f <isr_common_stub>

001003e9 <isr15>:
  1003e9:	6a 00                	push   $0x0
  1003eb:	6a 0f                	push   $0xf
  1003ed:	e9 3d ff ff ff       	jmp    10032f <isr_common_stub>

001003f2 <isr16>:
  1003f2:	6a 00                	push   $0x0
  1003f4:	6a 10                	push   $0x10
  1003f6:	e9 34 ff ff ff       	jmp    10032f <isr_common_stub>

001003fb <isr17>:
  1003fb:	6a 11                	push   $0x11
  1003fd:	e9 2d ff ff ff       	jmp    10032f <isr_common_stub>

00100402 <isr18>:
  100402:	6a 00                	push   $0x0
  100404:	6a 12                	push   $0x12
  100406:	e9 24 ff ff ff       	jmp    10032f <isr_common_stub>

0010040b <isr19>:
  10040b:	6a 00                	push   $0x0
  10040d:	6a 13                	push   $0x13
  10040f:	e9 1b ff ff ff       	jmp    10032f <isr_common_stub>

00100414 <isr20>:
  100414:	6a 00                	push   $0x0
  100416:	6a 14                	push   $0x14
  100418:	e9 12 ff ff ff       	jmp    10032f <isr_common_stub>

0010041d <isr21>:
  10041d:	6a 15                	push   $0x15
  10041f:	e9 0b ff ff ff       	jmp    10032f <isr_common_stub>

00100424 <isr22>:
  100424:	6a 00                	push   $0x0
  100426:	6a 16                	push   $0x16
  100428:	e9 02 ff ff ff       	jmp    10032f <isr_common_stub>

0010042d <isr23>:
  10042d:	6a 00                	push   $0x0
  10042f:	6a 17                	push   $0x17
  100431:	e9 f9 fe ff ff       	jmp    10032f <isr_common_stub>

00100436 <isr24>:
  100436:	6a 00                	push   $0x0
  100438:	6a 18                	push   $0x18
  10043a:	e9 f0 fe ff ff       	jmp    10032f <isr_common_stub>

0010043f <isr25>:
  10043f:	6a 00                	push   $0x0
  100441:	6a 19                	push   $0x19
  100443:	e9 e7 fe ff ff       	jmp    10032f <isr_common_stub>

00100448 <isr26>:
  100448:	6a 00                	push   $0x0
  10044a:	6a 1a                	push   $0x1a
  10044c:	e9 de fe ff ff       	jmp    10032f <isr_common_stub>

00100451 <isr27>:
  100451:	6a 00                	push   $0x0
  100453:	6a 1b                	push   $0x1b
  100455:	e9 d5 fe ff ff       	jmp    10032f <isr_common_stub>

0010045a <isr28>:
  10045a:	6a 00                	push   $0x0
  10045c:	6a 1c                	push   $0x1c
  10045e:	e9 cc fe ff ff       	jmp    10032f <isr_common_stub>

00100463 <isr29>:
  100463:	6a 1d                	push   $0x1d
  100465:	e9 c5 fe ff ff       	jmp    10032f <isr_common_stub>

0010046a <isr30>:
  10046a:	6a 1e                	push   $0x1e
  10046c:	e9 be fe ff ff       	jmp    10032f <isr_common_stub>

00100471 <isr31>:
  100471:	6a 00                	push   $0x0
  100473:	6a 1f                	push   $0x1f
  100475:	e9 b5 fe ff ff       	jmp    10032f <isr_common_stub>

0010047a <irq0>:
  10047a:	fa                   	cli
  10047b:	6a 00                	push   $0x0
  10047d:	6a 20                	push   $0x20
  10047f:	e9 d4 fe ff ff       	jmp    100358 <irq_common_stub>

00100484 <irq1>:
  100484:	6a 01                	push   $0x1
  100486:	6a 21                	push   $0x21
  100488:	e9 cb fe ff ff       	jmp    100358 <irq_common_stub>

0010048d <irq2>:
  10048d:	6a 02                	push   $0x2
  10048f:	6a 22                	push   $0x22
  100491:	e9 c2 fe ff ff       	jmp    100358 <irq_common_stub>

00100496 <irq3>:
  100496:	6a 03                	push   $0x3
  100498:	6a 23                	push   $0x23
  10049a:	e9 b9 fe ff ff       	jmp    100358 <irq_common_stub>

0010049f <irq4>:
  10049f:	6a 04                	push   $0x4
  1004a1:	6a 24                	push   $0x24
  1004a3:	e9 b0 fe ff ff       	jmp    100358 <irq_common_stub>

001004a8 <irq5>:
  1004a8:	6a 05                	push   $0x5
  1004aa:	6a 25                	push   $0x25
  1004ac:	e9 a7 fe ff ff       	jmp    100358 <irq_common_stub>

001004b1 <irq6>:
  1004b1:	6a 06                	push   $0x6
  1004b3:	6a 26                	push   $0x26
  1004b5:	e9 9e fe ff ff       	jmp    100358 <irq_common_stub>

001004ba <irq7>:
  1004ba:	6a 07                	push   $0x7
  1004bc:	6a 27                	push   $0x27
  1004be:	e9 95 fe ff ff       	jmp    100358 <irq_common_stub>

001004c3 <irq8>:
  1004c3:	6a 08                	push   $0x8
  1004c5:	6a 28                	push   $0x28
  1004c7:	e9 8c fe ff ff       	jmp    100358 <irq_common_stub>

001004cc <irq9>:
  1004cc:	6a 09                	push   $0x9
  1004ce:	6a 29                	push   $0x29
  1004d0:	e9 83 fe ff ff       	jmp    100358 <irq_common_stub>

001004d5 <irq10>:
  1004d5:	6a 0a                	push   $0xa
  1004d7:	6a 2a                	push   $0x2a
  1004d9:	e9 7a fe ff ff       	jmp    100358 <irq_common_stub>

001004de <irq11>:
  1004de:	6a 0b                	push   $0xb
  1004e0:	6a 2b                	push   $0x2b
  1004e2:	e9 71 fe ff ff       	jmp    100358 <irq_common_stub>

001004e7 <irq12>:
  1004e7:	6a 0c                	push   $0xc
  1004e9:	6a 2c                	push   $0x2c
  1004eb:	e9 68 fe ff ff       	jmp    100358 <irq_common_stub>

001004f0 <irq13>:
  1004f0:	6a 0d                	push   $0xd
  1004f2:	6a 2d                	push   $0x2d
  1004f4:	e9 5f fe ff ff       	jmp    100358 <irq_common_stub>

001004f9 <irq14>:
  1004f9:	6a 0e                	push   $0xe
  1004fb:	6a 2e                	push   $0x2e
  1004fd:	e9 56 fe ff ff       	jmp    100358 <irq_common_stub>

00100502 <irq15>:
  100502:	6a 0f                	push   $0xf
  100504:	6a 2f                	push   $0x2f
  100506:	e9 4d fe ff ff       	jmp    100358 <irq_common_stub>

0010050b <irs_sys>:
  10050b:	6a 80                	push   $0xffffff80
  10050d:	6a 00                	push   $0x0
  10050f:	e9 44 fe ff ff       	jmp    100358 <irq_common_stub>
  100514:	66 90                	xchg   %ax,%ax
  100516:	66 90                	xchg   %ax,%ax
  100518:	66 90                	xchg   %ax,%ax
  10051a:	66 90                	xchg   %ax,%ax
  10051c:	66 90                	xchg   %ax,%ax
  10051e:	66 90                	xchg   %ax,%ax

00100520 <context_switch>:
  100520:	50                   	push   %eax
  100521:	51                   	push   %ecx
  100522:	52                   	push   %edx
  100523:	53                   	push   %ebx
  100524:	55                   	push   %ebp
  100525:	56                   	push   %esi
  100526:	57                   	push   %edi
  100527:	8b 44 24 20          	mov    0x20(%esp),%eax
  10052b:	89 20                	mov    %esp,(%eax)
  10052d:	8b 44 24 24          	mov    0x24(%esp),%eax
  100531:	8b 20                	mov    (%eax),%esp

00100533 <resume_thread>:
  100533:	5f                   	pop    %edi
  100534:	5e                   	pop    %esi
  100535:	5d                   	pop    %ebp
  100536:	5b                   	pop    %ebx
  100537:	5a                   	pop    %edx
  100538:	59                   	pop    %ecx
  100539:	58                   	pop    %eax
  10053a:	fb                   	sti
  10053b:	c3                   	ret

0010053c <switch_to_user_mode>:
  10053c:	83 c4 08             	add    $0x8,%esp
  10053f:	54                   	push   %esp
  100540:	e8 48 02 00 00       	call   10078d <kprint_hex>
  100545:	5c                   	pop    %esp
  100546:	e8 47 08 00 00       	call   100d92 <kprintln>
  10054b:	54                   	push   %esp
  10054c:	e8 3c 02 00 00       	call   10078d <kprint_hex>
  100551:	5c                   	pop    %esp
  100552:	e8 3b 08 00 00       	call   100d92 <kprintln>
  100557:	54                   	push   %esp
  100558:	e8 30 02 00 00       	call   10078d <kprint_hex>
  10055d:	5c                   	pop    %esp
  10055e:	e8 2f 08 00 00       	call   100d92 <kprintln>
  100563:	e9 b8 fd ff ff       	jmp    100320 <interrupt_exit>
  100568:	66 90                	xchg   %ax,%ax
  10056a:	66 90                	xchg   %ax,%ax
  10056c:	66 90                	xchg   %ax,%ax
  10056e:	66 90                	xchg   %ax,%ax

00100570 <get_ebp>:
  100570:	89 e8                	mov    %ebp,%eax
  100572:	c3                   	ret

00100573 <atomic_exchange>:
  100573:	8b 4c 24 04          	mov    0x4(%esp),%ecx
  100577:	8b 44 24 08          	mov    0x8(%esp),%eax
  10057b:	87 01                	xchg   %eax,(%ecx)
  10057d:	c3                   	ret

0010057e <refresh_tss>:
  10057e:	66 b8 30 00          	mov    $0x30,%ax
  100582:	0f 00 d8             	ltr    %ax
  100585:	c3                   	ret

00100586 <load_gdt>:
  100586:	8b 44 24 04          	mov    0x4(%esp),%eax
  10058a:	0f 01 10             	lgdtl  (%eax)
  10058d:	66 b8 10 00          	mov    $0x10,%ax
  100591:	8e d8                	mov    %eax,%ds
  100593:	8e c0                	mov    %eax,%es
  100595:	8e e0                	mov    %eax,%fs
  100597:	8e d0                	mov    %eax,%ss
  100599:	66 b8 18 00          	mov    $0x18,%ax
  10059d:	8e e8                	mov    %eax,%gs
  10059f:	ea a6 05 10 00 08 00 	ljmp   $0x8,$0x1005a6

001005a6 <load_gdt.flush>:
  1005a6:	c3                   	ret

001005a7 <keyboard_callback>:
  1005a7:	55                   	push   %ebp
  1005a8:	89 e5                	mov    %esp,%ebp
  1005aa:	83 ec 18             	sub    $0x18,%esp
  1005ad:	83 ec 0c             	sub    $0xc,%esp
  1005b0:	6a 60                	push   $0x60
  1005b2:	e8 a1 10 00 00       	call   101658 <port_byte_in>
  1005b7:	83 c4 10             	add    $0x10,%esp
  1005ba:	88 45 f7             	mov    %al,-0x9(%ebp)
  1005bd:	80 7d f7 39          	cmpb   $0x39,-0x9(%ebp)
  1005c1:	0f 87 8b 00 00 00    	ja     100652 <keyboard_callback+0xab>
  1005c7:	80 7d f7 0e          	cmpb   $0xe,-0x9(%ebp)
  1005cb:	75 17                	jne    1005e4 <keyboard_callback+0x3d>
  1005cd:	83 ec 0c             	sub    $0xc,%esp
  1005d0:	68 00 60 10 00       	push   $0x106000
  1005d5:	e8 8b 17 00 00       	call   101d65 <backspace>
  1005da:	83 c4 10             	add    $0x10,%esp
  1005dd:	e8 63 01 00 00       	call   100745 <kprint_backspace>
  1005e2:	eb 6f                	jmp    100653 <keyboard_callback+0xac>
  1005e4:	80 7d f7 1c          	cmpb   $0x1c,-0x9(%ebp)
  1005e8:	75 29                	jne    100613 <keyboard_callback+0x6c>
  1005ea:	83 ec 0c             	sub    $0xc,%esp
  1005ed:	68 5a 52 10 00       	push   $0x10525a
  1005f2:	e8 4e 06 00 00       	call   100c45 <kprintf>
  1005f7:	83 c4 10             	add    $0x10,%esp
  1005fa:	83 ec 0c             	sub    $0xc,%esp
  1005fd:	68 00 60 10 00       	push   $0x106000
  100602:	e8 80 fa ff ff       	call   100087 <user_input>
  100607:	83 c4 10             	add    $0x10,%esp
  10060a:	c6 05 00 60 10 00 00 	movb   $0x0,0x106000
  100611:	eb 40                	jmp    100653 <keyboard_callback+0xac>
  100613:	0f b6 45 f7          	movzbl -0x9(%ebp),%eax
  100617:	0f b6 80 20 52 10 00 	movzbl 0x105220(%eax),%eax
  10061e:	88 45 f6             	mov    %al,-0xa(%ebp)
  100621:	0f b6 45 f6          	movzbl -0xa(%ebp),%eax
  100625:	88 45 f4             	mov    %al,-0xc(%ebp)
  100628:	c6 45 f5 00          	movb   $0x0,-0xb(%ebp)
  10062c:	0f be 45 f6          	movsbl -0xa(%ebp),%eax
  100630:	83 ec 08             	sub    $0x8,%esp
  100633:	50                   	push   %eax
  100634:	68 00 60 10 00       	push   $0x106000
  100639:	e8 ee 16 00 00       	call   101d2c <append>
  10063e:	83 c4 10             	add    $0x10,%esp
  100641:	83 ec 0c             	sub    $0xc,%esp
  100644:	8d 45 f4             	lea    -0xc(%ebp),%eax
  100647:	50                   	push   %eax
  100648:	e8 f8 05 00 00       	call   100c45 <kprintf>
  10064d:	83 c4 10             	add    $0x10,%esp
  100650:	eb 01                	jmp    100653 <keyboard_callback+0xac>
  100652:	90                   	nop
  100653:	c9                   	leave
  100654:	c3                   	ret

00100655 <init_keyboard>:
  100655:	55                   	push   %ebp
  100656:	89 e5                	mov    %esp,%ebp
  100658:	83 ec 08             	sub    $0x8,%esp
  10065b:	83 ec 08             	sub    $0x8,%esp
  10065e:	68 a7 05 10 00       	push   $0x1005a7
  100663:	6a 21                	push   $0x21
  100665:	e8 39 0f 00 00       	call   1015a3 <register_interrupt_handler>
  10066a:	83 c4 10             	add    $0x10,%esp
  10066d:	90                   	nop
  10066e:	c9                   	leave
  10066f:	c3                   	ret

00100670 <kprint_at>:
  100670:	55                   	push   %ebp
  100671:	89 e5                	mov    %esp,%ebp
  100673:	83 ec 18             	sub    $0x18,%esp
  100676:	83 7d 0c 00          	cmpl   $0x0,0xc(%ebp)
  10067a:	78 1c                	js     100698 <kprint_at+0x28>
  10067c:	83 7d 10 00          	cmpl   $0x0,0x10(%ebp)
  100680:	78 16                	js     100698 <kprint_at+0x28>
  100682:	83 ec 08             	sub    $0x8,%esp
  100685:	ff 75 10             	push   0x10(%ebp)
  100688:	ff 75 0c             	push   0xc(%ebp)
  10068b:	e8 59 05 00 00       	call   100be9 <get_offset>
  100690:	83 c4 10             	add    $0x10,%esp
  100693:	89 45 f0             	mov    %eax,-0x10(%ebp)
  100696:	eb 2a                	jmp    1006c2 <kprint_at+0x52>
  100698:	e8 19 04 00 00       	call   100ab6 <get_cursor_offset>
  10069d:	89 45 f0             	mov    %eax,-0x10(%ebp)
  1006a0:	83 ec 0c             	sub    $0xc,%esp
  1006a3:	ff 75 f0             	push   -0x10(%ebp)
  1006a6:	e8 59 05 00 00       	call   100c04 <get_offset_row>
  1006ab:	83 c4 10             	add    $0x10,%esp
  1006ae:	89 45 10             	mov    %eax,0x10(%ebp)
  1006b1:	83 ec 0c             	sub    $0xc,%esp
  1006b4:	ff 75 f0             	push   -0x10(%ebp)
  1006b7:	e8 65 05 00 00       	call   100c21 <get_offset_col>
  1006bc:	83 c4 10             	add    $0x10,%esp
  1006bf:	89 45 0c             	mov    %eax,0xc(%ebp)
  1006c2:	c7 45 f4 00 00 00 00 	movl   $0x0,-0xc(%ebp)
  1006c9:	eb 4c                	jmp    100717 <kprint_at+0xa7>
  1006cb:	8b 45 f4             	mov    -0xc(%ebp),%eax
  1006ce:	8d 50 01             	lea    0x1(%eax),%edx
  1006d1:	89 55 f4             	mov    %edx,-0xc(%ebp)
  1006d4:	89 c2                	mov    %eax,%edx
  1006d6:	8b 45 08             	mov    0x8(%ebp),%eax
  1006d9:	01 d0                	add    %edx,%eax
  1006db:	0f b6 00             	movzbl (%eax),%eax
  1006de:	0f be c0             	movsbl %al,%eax
  1006e1:	6a 0f                	push   $0xf
  1006e3:	ff 75 10             	push   0x10(%ebp)
  1006e6:	ff 75 0c             	push   0xc(%ebp)
  1006e9:	50                   	push   %eax
  1006ea:	e8 a7 02 00 00       	call   100996 <print_char>
  1006ef:	83 c4 10             	add    $0x10,%esp
  1006f2:	89 45 f0             	mov    %eax,-0x10(%ebp)
  1006f5:	83 ec 0c             	sub    $0xc,%esp
  1006f8:	ff 75 f0             	push   -0x10(%ebp)
  1006fb:	e8 04 05 00 00       	call   100c04 <get_offset_row>
  100700:	83 c4 10             	add    $0x10,%esp
  100703:	89 45 10             	mov    %eax,0x10(%ebp)
  100706:	83 ec 0c             	sub    $0xc,%esp
  100709:	ff 75 f0             	push   -0x10(%ebp)
  10070c:	e8 10 05 00 00       	call   100c21 <get_offset_col>
  100711:	83 c4 10             	add    $0x10,%esp
  100714:	89 45 0c             	mov    %eax,0xc(%ebp)
  100717:	8b 55 f4             	mov    -0xc(%ebp),%edx
  10071a:	8b 45 08             	mov    0x8(%ebp),%eax
  10071d:	01 d0                	add    %edx,%eax
  10071f:	0f b6 00             	movzbl (%eax),%eax
  100722:	84 c0                	test   %al,%al
  100724:	75 a5                	jne    1006cb <kprint_at+0x5b>
  100726:	90                   	nop
  100727:	90                   	nop
  100728:	c9                   	leave
  100729:	c3                   	ret

0010072a <kprint>:
  10072a:	55                   	push   %ebp
  10072b:	89 e5                	mov    %esp,%ebp
  10072d:	83 ec 08             	sub    $0x8,%esp
  100730:	83 ec 04             	sub    $0x4,%esp
  100733:	6a ff                	push   $0xffffffff
  100735:	6a ff                	push   $0xffffffff
  100737:	ff 75 08             	push   0x8(%ebp)
  10073a:	e8 31 ff ff ff       	call   100670 <kprint_at>
  10073f:	83 c4 10             	add    $0x10,%esp
  100742:	90                   	nop
  100743:	c9                   	leave
  100744:	c3                   	ret

00100745 <kprint_backspace>:
  100745:	55                   	push   %ebp
  100746:	89 e5                	mov    %esp,%ebp
  100748:	83 ec 18             	sub    $0x18,%esp
  10074b:	e8 66 03 00 00       	call   100ab6 <get_cursor_offset>
  100750:	83 e8 02             	sub    $0x2,%eax
  100753:	89 45 f4             	mov    %eax,-0xc(%ebp)
  100756:	83 ec 0c             	sub    $0xc,%esp
  100759:	ff 75 f4             	push   -0xc(%ebp)
  10075c:	e8 a3 04 00 00       	call   100c04 <get_offset_row>
  100761:	83 c4 10             	add    $0x10,%esp
  100764:	89 45 f0             	mov    %eax,-0x10(%ebp)
  100767:	83 ec 0c             	sub    $0xc,%esp
  10076a:	ff 75 f4             	push   -0xc(%ebp)
  10076d:	e8 af 04 00 00       	call   100c21 <get_offset_col>
  100772:	83 c4 10             	add    $0x10,%esp
  100775:	89 45 ec             	mov    %eax,-0x14(%ebp)
  100778:	6a 0f                	push   $0xf
  10077a:	ff 75 f0             	push   -0x10(%ebp)
  10077d:	ff 75 ec             	push   -0x14(%ebp)
  100780:	6a 08                	push   $0x8
  100782:	e8 0f 02 00 00       	call   100996 <print_char>
  100787:	83 c4 10             	add    $0x10,%esp
  10078a:	90                   	nop
  10078b:	c9                   	leave
  10078c:	c3                   	ret

0010078d <kprint_hex>:
  10078d:	55                   	push   %ebp
  10078e:	89 e5                	mov    %esp,%ebp
  100790:	83 ec 18             	sub    $0x18,%esp
  100793:	c7 45 f4 07 00 00 00 	movl   $0x7,-0xc(%ebp)
  10079a:	eb 5a                	jmp    1007f6 <kprint_hex+0x69>
  10079c:	8b 45 08             	mov    0x8(%ebp),%eax
  10079f:	89 45 f0             	mov    %eax,-0x10(%ebp)
  1007a2:	c7 45 ec 00 00 00 00 	movl   $0x0,-0x14(%ebp)
  1007a9:	eb 08                	jmp    1007b3 <kprint_hex+0x26>
  1007ab:	c1 7d f0 04          	sarl   $0x4,-0x10(%ebp)
  1007af:	83 45 ec 01          	addl   $0x1,-0x14(%ebp)
  1007b3:	8b 45 ec             	mov    -0x14(%ebp),%eax
  1007b6:	3b 45 f4             	cmp    -0xc(%ebp),%eax
  1007b9:	7c f0                	jl     1007ab <kprint_hex+0x1e>
  1007bb:	83 65 f0 0f          	andl   $0xf,-0x10(%ebp)
  1007bf:	83 7d f0 00          	cmpl   $0x0,-0x10(%ebp)
  1007c3:	78 11                	js     1007d6 <kprint_hex+0x49>
  1007c5:	83 7d f0 09          	cmpl   $0x9,-0x10(%ebp)
  1007c9:	7f 0b                	jg     1007d6 <kprint_hex+0x49>
  1007cb:	8b 45 f0             	mov    -0x10(%ebp),%eax
  1007ce:	83 c0 30             	add    $0x30,%eax
  1007d1:	88 45 eb             	mov    %al,-0x15(%ebp)
  1007d4:	eb 09                	jmp    1007df <kprint_hex+0x52>
  1007d6:	8b 45 f0             	mov    -0x10(%ebp),%eax
  1007d9:	83 c0 37             	add    $0x37,%eax
  1007dc:	88 45 eb             	mov    %al,-0x15(%ebp)
  1007df:	0f be 45 eb          	movsbl -0x15(%ebp),%eax
  1007e3:	6a 0f                	push   $0xf
  1007e5:	6a ff                	push   $0xffffffff
  1007e7:	6a ff                	push   $0xffffffff
  1007e9:	50                   	push   %eax
  1007ea:	e8 a7 01 00 00       	call   100996 <print_char>
  1007ef:	83 c4 10             	add    $0x10,%esp
  1007f2:	83 6d f4 01          	subl   $0x1,-0xc(%ebp)
  1007f6:	83 7d f4 00          	cmpl   $0x0,-0xc(%ebp)
  1007fa:	79 a0                	jns    10079c <kprint_hex+0xf>
  1007fc:	90                   	nop
  1007fd:	90                   	nop
  1007fe:	c9                   	leave
  1007ff:	c3                   	ret

00100800 <kprint_dec>:
  100800:	55                   	push   %ebp
  100801:	89 e5                	mov    %esp,%ebp
  100803:	83 ec 58             	sub    $0x58,%esp
  100806:	83 7d 08 00          	cmpl   $0x0,0x8(%ebp)
  10080a:	75 15                	jne    100821 <kprint_dec+0x21>
  10080c:	6a 0f                	push   $0xf
  10080e:	6a ff                	push   $0xffffffff
  100810:	6a ff                	push   $0xffffffff
  100812:	6a 30                	push   $0x30
  100814:	e8 7d 01 00 00       	call   100996 <print_char>
  100819:	83 c4 10             	add    $0x10,%esp
  10081c:	e9 c3 00 00 00       	jmp    1008e4 <kprint_dec+0xe4>
  100821:	83 7d 08 00          	cmpl   $0x0,0x8(%ebp)
  100825:	79 13                	jns    10083a <kprint_dec+0x3a>
  100827:	6a 0f                	push   $0xf
  100829:	6a ff                	push   $0xffffffff
  10082b:	6a ff                	push   $0xffffffff
  10082d:	6a 2d                	push   $0x2d
  10082f:	e8 62 01 00 00       	call   100996 <print_char>
  100834:	83 c4 10             	add    $0x10,%esp
  100837:	f7 5d 08             	negl   0x8(%ebp)
  10083a:	8b 45 08             	mov    0x8(%ebp),%eax
  10083d:	89 45 f4             	mov    %eax,-0xc(%ebp)
  100840:	c7 45 f0 00 00 00 00 	movl   $0x0,-0x10(%ebp)
  100847:	eb 43                	jmp    10088c <kprint_dec+0x8c>
  100849:	8b 4d f4             	mov    -0xc(%ebp),%ecx
  10084c:	ba cd cc cc cc       	mov    $0xcccccccd,%edx
  100851:	89 c8                	mov    %ecx,%eax
  100853:	f7 e2                	mul    %edx
  100855:	c1 ea 03             	shr    $0x3,%edx
  100858:	89 d0                	mov    %edx,%eax
  10085a:	c1 e0 02             	shl    $0x2,%eax
  10085d:	01 d0                	add    %edx,%eax
  10085f:	01 c0                	add    %eax,%eax
  100861:	29 c1                	sub    %eax,%ecx
  100863:	89 ca                	mov    %ecx,%edx
  100865:	89 d0                	mov    %edx,%eax
  100867:	83 c0 30             	add    $0x30,%eax
  10086a:	89 c1                	mov    %eax,%ecx
  10086c:	8d 55 cc             	lea    -0x34(%ebp),%edx
  10086f:	8b 45 f0             	mov    -0x10(%ebp),%eax
  100872:	01 d0                	add    %edx,%eax
  100874:	88 08                	mov    %cl,(%eax)
  100876:	8b 45 f4             	mov    -0xc(%ebp),%eax
  100879:	ba cd cc cc cc       	mov    $0xcccccccd,%edx
  10087e:	f7 e2                	mul    %edx
  100880:	89 d0                	mov    %edx,%eax
  100882:	c1 e8 03             	shr    $0x3,%eax
  100885:	89 45 f4             	mov    %eax,-0xc(%ebp)
  100888:	83 45 f0 01          	addl   $0x1,-0x10(%ebp)
  10088c:	83 7d f4 00          	cmpl   $0x0,-0xc(%ebp)
  100890:	75 b7                	jne    100849 <kprint_dec+0x49>
  100892:	8d 55 cc             	lea    -0x34(%ebp),%edx
  100895:	8b 45 f0             	mov    -0x10(%ebp),%eax
  100898:	01 d0                	add    %edx,%eax
  10089a:	c6 00 00             	movb   $0x0,(%eax)
  10089d:	8b 45 f0             	mov    -0x10(%ebp),%eax
  1008a0:	8d 50 ff             	lea    -0x1(%eax),%edx
  1008a3:	89 55 f0             	mov    %edx,-0x10(%ebp)
  1008a6:	c6 44 05 ac 00       	movb   $0x0,-0x54(%ebp,%eax,1)
  1008ab:	c7 45 ec 00 00 00 00 	movl   $0x0,-0x14(%ebp)
  1008b2:	eb 1b                	jmp    1008cf <kprint_dec+0xcf>
  1008b4:	8b 55 ec             	mov    -0x14(%ebp),%edx
  1008b7:	8d 42 01             	lea    0x1(%edx),%eax
  1008ba:	89 45 ec             	mov    %eax,-0x14(%ebp)
  1008bd:	8b 45 f0             	mov    -0x10(%ebp),%eax
  1008c0:	8d 48 ff             	lea    -0x1(%eax),%ecx
  1008c3:	89 4d f0             	mov    %ecx,-0x10(%ebp)
  1008c6:	0f b6 54 15 cc       	movzbl -0x34(%ebp,%edx,1),%edx
  1008cb:	88 54 05 ac          	mov    %dl,-0x54(%ebp,%eax,1)
  1008cf:	83 7d f0 00          	cmpl   $0x0,-0x10(%ebp)
  1008d3:	79 df                	jns    1008b4 <kprint_dec+0xb4>
  1008d5:	83 ec 0c             	sub    $0xc,%esp
  1008d8:	8d 45 ac             	lea    -0x54(%ebp),%eax
  1008db:	50                   	push   %eax
  1008dc:	e8 49 fe ff ff       	call   10072a <kprint>
  1008e1:	83 c4 10             	add    $0x10,%esp
  1008e4:	c9                   	leave
  1008e5:	c3                   	ret

001008e6 <scroll_screen>:
  1008e6:	55                   	push   %ebp
  1008e7:	89 e5                	mov    %esp,%ebp
  1008e9:	53                   	push   %ebx
  1008ea:	83 ec 14             	sub    $0x14,%esp
  1008ed:	81 7d 08 9f 0f 00 00 	cmpl   $0xf9f,0x8(%ebp)
  1008f4:	0f 8e 94 00 00 00    	jle    10098e <scroll_screen+0xa8>
  1008fa:	c7 45 f4 01 00 00 00 	movl   $0x1,-0xc(%ebp)
  100901:	eb 46                	jmp    100949 <scroll_screen+0x63>
  100903:	83 ec 08             	sub    $0x8,%esp
  100906:	ff 75 f4             	push   -0xc(%ebp)
  100909:	6a 00                	push   $0x0
  10090b:	e8 d9 02 00 00       	call   100be9 <get_offset>
  100910:	83 c4 10             	add    $0x10,%esp
  100913:	05 00 80 0b 00       	add    $0xb8000,%eax
  100918:	89 c3                	mov    %eax,%ebx
  10091a:	8b 45 f4             	mov    -0xc(%ebp),%eax
  10091d:	83 e8 01             	sub    $0x1,%eax
  100920:	83 ec 08             	sub    $0x8,%esp
  100923:	50                   	push   %eax
  100924:	6a 00                	push   $0x0
  100926:	e8 be 02 00 00       	call   100be9 <get_offset>
  10092b:	83 c4 10             	add    $0x10,%esp
  10092e:	05 00 80 0b 00       	add    $0xb8000,%eax
  100933:	83 ec 04             	sub    $0x4,%esp
  100936:	68 a0 00 00 00       	push   $0xa0
  10093b:	53                   	push   %ebx
  10093c:	50                   	push   %eax
  10093d:	e8 5c 0f 00 00       	call   10189e <kmemcpy>
  100942:	83 c4 10             	add    $0x10,%esp
  100945:	83 45 f4 01          	addl   $0x1,-0xc(%ebp)
  100949:	83 7d f4 18          	cmpl   $0x18,-0xc(%ebp)
  10094d:	7e b4                	jle    100903 <scroll_screen+0x1d>
  10094f:	83 ec 08             	sub    $0x8,%esp
  100952:	6a 18                	push   $0x18
  100954:	6a 00                	push   $0x0
  100956:	e8 8e 02 00 00       	call   100be9 <get_offset>
  10095b:	83 c4 10             	add    $0x10,%esp
  10095e:	05 00 80 0b 00       	add    $0xb8000,%eax
  100963:	89 45 f0             	mov    %eax,-0x10(%ebp)
  100966:	c7 45 f4 00 00 00 00 	movl   $0x0,-0xc(%ebp)
  10096d:	eb 0f                	jmp    10097e <scroll_screen+0x98>
  10096f:	8b 55 f4             	mov    -0xc(%ebp),%edx
  100972:	8b 45 f0             	mov    -0x10(%ebp),%eax
  100975:	01 d0                	add    %edx,%eax
  100977:	c6 00 00             	movb   $0x0,(%eax)
  10097a:	83 45 f4 01          	addl   $0x1,-0xc(%ebp)
  10097e:	81 7d f4 9f 00 00 00 	cmpl   $0x9f,-0xc(%ebp)
  100985:	7e e8                	jle    10096f <scroll_screen+0x89>
  100987:	81 6d 08 a0 00 00 00 	subl   $0xa0,0x8(%ebp)
  10098e:	8b 45 08             	mov    0x8(%ebp),%eax
  100991:	8b 5d fc             	mov    -0x4(%ebp),%ebx
  100994:	c9                   	leave
  100995:	c3                   	ret

00100996 <print_char>:
  100996:	55                   	push   %ebp
  100997:	89 e5                	mov    %esp,%ebp
  100999:	83 ec 28             	sub    $0x28,%esp
  10099c:	8b 55 08             	mov    0x8(%ebp),%edx
  10099f:	8b 45 14             	mov    0x14(%ebp),%eax
  1009a2:	88 55 e4             	mov    %dl,-0x1c(%ebp)
  1009a5:	88 45 e0             	mov    %al,-0x20(%ebp)
  1009a8:	c7 45 f0 00 80 0b 00 	movl   $0xb8000,-0x10(%ebp)
  1009af:	80 7d e0 00          	cmpb   $0x0,-0x20(%ebp)
  1009b3:	75 04                	jne    1009b9 <print_char+0x23>
  1009b5:	c6 45 e0 0f          	movb   $0xf,-0x20(%ebp)
  1009b9:	83 7d 0c 4f          	cmpl   $0x4f,0xc(%ebp)
  1009bd:	7f 06                	jg     1009c5 <print_char+0x2f>
  1009bf:	83 7d 10 18          	cmpl   $0x18,0x10(%ebp)
  1009c3:	7e 2c                	jle    1009f1 <print_char+0x5b>
  1009c5:	8b 45 f0             	mov    -0x10(%ebp),%eax
  1009c8:	05 9e 0f 00 00       	add    $0xf9e,%eax
  1009cd:	c6 00 45             	movb   $0x45,(%eax)
  1009d0:	8b 45 f0             	mov    -0x10(%ebp),%eax
  1009d3:	05 9f 0f 00 00       	add    $0xf9f,%eax
  1009d8:	c6 00 f4             	movb   $0xf4,(%eax)
  1009db:	83 ec 08             	sub    $0x8,%esp
  1009de:	ff 75 10             	push   0x10(%ebp)
  1009e1:	ff 75 0c             	push   0xc(%ebp)
  1009e4:	e8 00 02 00 00       	call   100be9 <get_offset>
  1009e9:	83 c4 10             	add    $0x10,%esp
  1009ec:	e9 c3 00 00 00       	jmp    100ab4 <print_char+0x11e>
  1009f1:	83 7d 0c 00          	cmpl   $0x0,0xc(%ebp)
  1009f5:	78 1c                	js     100a13 <print_char+0x7d>
  1009f7:	83 7d 10 00          	cmpl   $0x0,0x10(%ebp)
  1009fb:	78 16                	js     100a13 <print_char+0x7d>
  1009fd:	83 ec 08             	sub    $0x8,%esp
  100a00:	ff 75 10             	push   0x10(%ebp)
  100a03:	ff 75 0c             	push   0xc(%ebp)
  100a06:	e8 de 01 00 00       	call   100be9 <get_offset>
  100a0b:	83 c4 10             	add    $0x10,%esp
  100a0e:	89 45 f4             	mov    %eax,-0xc(%ebp)
  100a11:	eb 08                	jmp    100a1b <print_char+0x85>
  100a13:	e8 9e 00 00 00       	call   100ab6 <get_cursor_offset>
  100a18:	89 45 f4             	mov    %eax,-0xc(%ebp)
  100a1b:	80 7d e4 0a          	cmpb   $0xa,-0x1c(%ebp)
  100a1f:	75 2a                	jne    100a4b <print_char+0xb5>
  100a21:	83 ec 0c             	sub    $0xc,%esp
  100a24:	ff 75 f4             	push   -0xc(%ebp)
  100a27:	e8 d8 01 00 00       	call   100c04 <get_offset_row>
  100a2c:	83 c4 10             	add    $0x10,%esp
  100a2f:	89 45 10             	mov    %eax,0x10(%ebp)
  100a32:	8b 45 10             	mov    0x10(%ebp),%eax
  100a35:	83 c0 01             	add    $0x1,%eax
  100a38:	83 ec 08             	sub    $0x8,%esp
  100a3b:	50                   	push   %eax
  100a3c:	6a 00                	push   $0x0
  100a3e:	e8 a6 01 00 00       	call   100be9 <get_offset>
  100a43:	83 c4 10             	add    $0x10,%esp
  100a46:	89 45 f4             	mov    %eax,-0xc(%ebp)
  100a49:	eb 47                	jmp    100a92 <print_char+0xfc>
  100a4b:	80 7d e4 08          	cmpb   $0x8,-0x1c(%ebp)
  100a4f:	75 1e                	jne    100a6f <print_char+0xd9>
  100a51:	8b 55 f4             	mov    -0xc(%ebp),%edx
  100a54:	8b 45 f0             	mov    -0x10(%ebp),%eax
  100a57:	01 d0                	add    %edx,%eax
  100a59:	c6 00 20             	movb   $0x20,(%eax)
  100a5c:	8b 45 f4             	mov    -0xc(%ebp),%eax
  100a5f:	8d 50 01             	lea    0x1(%eax),%edx
  100a62:	8b 45 f0             	mov    -0x10(%ebp),%eax
  100a65:	01 c2                	add    %eax,%edx
  100a67:	0f b6 45 e0          	movzbl -0x20(%ebp),%eax
  100a6b:	88 02                	mov    %al,(%edx)
  100a6d:	eb 23                	jmp    100a92 <print_char+0xfc>
  100a6f:	8b 55 f4             	mov    -0xc(%ebp),%edx
  100a72:	8b 45 f0             	mov    -0x10(%ebp),%eax
  100a75:	01 c2                	add    %eax,%edx
  100a77:	0f b6 45 e4          	movzbl -0x1c(%ebp),%eax
  100a7b:	88 02                	mov    %al,(%edx)
  100a7d:	8b 45 f4             	mov    -0xc(%ebp),%eax
  100a80:	8d 50 01             	lea    0x1(%eax),%edx
  100a83:	8b 45 f0             	mov    -0x10(%ebp),%eax
  100a86:	01 c2                	add    %eax,%edx
  100a88:	0f b6 45 e0          	movzbl -0x20(%ebp),%eax
  100a8c:	88 02                	mov    %al,(%edx)
  100a8e:	83 45 f4 02          	addl   $0x2,-0xc(%ebp)
  100a92:	83 ec 0c             	sub    $0xc,%esp
  100a95:	ff 75 f4             	push   -0xc(%ebp)
  100a98:	e8 49 fe ff ff       	call   1008e6 <scroll_screen>
  100a9d:	83 c4 10             	add    $0x10,%esp
  100aa0:	89 45 f4             	mov    %eax,-0xc(%ebp)
  100aa3:	83 ec 0c             	sub    $0xc,%esp
  100aa6:	ff 75 f4             	push   -0xc(%ebp)
  100aa9:	e8 68 00 00 00       	call   100b16 <set_cursor_offset>
  100aae:	83 c4 10             	add    $0x10,%esp
  100ab1:	8b 45 f4             	mov    -0xc(%ebp),%eax
  100ab4:	c9                   	leave
  100ab5:	c3                   	ret

00100ab6 <get_cursor_offset>:
  100ab6:	55                   	push   %ebp
  100ab7:	89 e5                	mov    %esp,%ebp
  100ab9:	83 ec 18             	sub    $0x18,%esp
  100abc:	83 ec 08             	sub    $0x8,%esp
  100abf:	6a 0e                	push   $0xe
  100ac1:	68 d4 03 00 00       	push   $0x3d4
  100ac6:	e8 aa 0b 00 00       	call   101675 <port_byte_out>
  100acb:	83 c4 10             	add    $0x10,%esp
  100ace:	83 ec 0c             	sub    $0xc,%esp
  100ad1:	68 d5 03 00 00       	push   $0x3d5
  100ad6:	e8 7d 0b 00 00       	call   101658 <port_byte_in>
  100adb:	83 c4 10             	add    $0x10,%esp
  100ade:	0f b6 c0             	movzbl %al,%eax
  100ae1:	c1 e0 08             	shl    $0x8,%eax
  100ae4:	89 45 f4             	mov    %eax,-0xc(%ebp)
  100ae7:	83 ec 08             	sub    $0x8,%esp
  100aea:	6a 0f                	push   $0xf
  100aec:	68 d4 03 00 00       	push   $0x3d4
  100af1:	e8 7f 0b 00 00       	call   101675 <port_byte_out>
  100af6:	83 c4 10             	add    $0x10,%esp
  100af9:	83 ec 0c             	sub    $0xc,%esp
  100afc:	68 d5 03 00 00       	push   $0x3d5
  100b01:	e8 52 0b 00 00       	call   101658 <port_byte_in>
  100b06:	83 c4 10             	add    $0x10,%esp
  100b09:	0f b6 c0             	movzbl %al,%eax
  100b0c:	01 45 f4             	add    %eax,-0xc(%ebp)
  100b0f:	8b 45 f4             	mov    -0xc(%ebp),%eax
  100b12:	01 c0                	add    %eax,%eax
  100b14:	c9                   	leave
  100b15:	c3                   	ret

00100b16 <set_cursor_offset>:
  100b16:	55                   	push   %ebp
  100b17:	89 e5                	mov    %esp,%ebp
  100b19:	83 ec 08             	sub    $0x8,%esp
  100b1c:	8b 45 08             	mov    0x8(%ebp),%eax
  100b1f:	89 c2                	mov    %eax,%edx
  100b21:	c1 ea 1f             	shr    $0x1f,%edx
  100b24:	01 d0                	add    %edx,%eax
  100b26:	d1 f8                	sar    %eax
  100b28:	89 45 08             	mov    %eax,0x8(%ebp)
  100b2b:	83 ec 08             	sub    $0x8,%esp
  100b2e:	6a 0e                	push   $0xe
  100b30:	68 d4 03 00 00       	push   $0x3d4
  100b35:	e8 3b 0b 00 00       	call   101675 <port_byte_out>
  100b3a:	83 c4 10             	add    $0x10,%esp
  100b3d:	8b 45 08             	mov    0x8(%ebp),%eax
  100b40:	c1 f8 08             	sar    $0x8,%eax
  100b43:	0f b6 c0             	movzbl %al,%eax
  100b46:	83 ec 08             	sub    $0x8,%esp
  100b49:	50                   	push   %eax
  100b4a:	68 d5 03 00 00       	push   $0x3d5
  100b4f:	e8 21 0b 00 00       	call   101675 <port_byte_out>
  100b54:	83 c4 10             	add    $0x10,%esp
  100b57:	83 ec 08             	sub    $0x8,%esp
  100b5a:	6a 0f                	push   $0xf
  100b5c:	68 d4 03 00 00       	push   $0x3d4
  100b61:	e8 0f 0b 00 00       	call   101675 <port_byte_out>
  100b66:	83 c4 10             	add    $0x10,%esp
  100b69:	8b 45 08             	mov    0x8(%ebp),%eax
  100b6c:	0f b6 c0             	movzbl %al,%eax
  100b6f:	83 ec 08             	sub    $0x8,%esp
  100b72:	50                   	push   %eax
  100b73:	68 d5 03 00 00       	push   $0x3d5
  100b78:	e8 f8 0a 00 00       	call   101675 <port_byte_out>
  100b7d:	83 c4 10             	add    $0x10,%esp
  100b80:	90                   	nop
  100b81:	c9                   	leave
  100b82:	c3                   	ret

00100b83 <clear_screen>:
  100b83:	55                   	push   %ebp
  100b84:	89 e5                	mov    %esp,%ebp
  100b86:	83 ec 18             	sub    $0x18,%esp
  100b89:	c7 45 f0 d0 07 00 00 	movl   $0x7d0,-0x10(%ebp)
  100b90:	c7 45 ec 00 80 0b 00 	movl   $0xb8000,-0x14(%ebp)
  100b97:	c7 45 f4 00 00 00 00 	movl   $0x0,-0xc(%ebp)
  100b9e:	eb 23                	jmp    100bc3 <clear_screen+0x40>
  100ba0:	8b 45 f4             	mov    -0xc(%ebp),%eax
  100ba3:	01 c0                	add    %eax,%eax
  100ba5:	89 c2                	mov    %eax,%edx
  100ba7:	8b 45 ec             	mov    -0x14(%ebp),%eax
  100baa:	01 d0                	add    %edx,%eax
  100bac:	c6 00 20             	movb   $0x20,(%eax)
  100baf:	8b 45 f4             	mov    -0xc(%ebp),%eax
  100bb2:	01 c0                	add    %eax,%eax
  100bb4:	8d 50 01             	lea    0x1(%eax),%edx
  100bb7:	8b 45 ec             	mov    -0x14(%ebp),%eax
  100bba:	01 d0                	add    %edx,%eax
  100bbc:	c6 00 0f             	movb   $0xf,(%eax)
  100bbf:	83 45 f4 01          	addl   $0x1,-0xc(%ebp)
  100bc3:	8b 45 f4             	mov    -0xc(%ebp),%eax
  100bc6:	3b 45 f0             	cmp    -0x10(%ebp),%eax
  100bc9:	7c d5                	jl     100ba0 <clear_screen+0x1d>
  100bcb:	83 ec 08             	sub    $0x8,%esp
  100bce:	6a 00                	push   $0x0
  100bd0:	6a 00                	push   $0x0
  100bd2:	e8 12 00 00 00       	call   100be9 <get_offset>
  100bd7:	83 c4 10             	add    $0x10,%esp
  100bda:	83 ec 0c             	sub    $0xc,%esp
  100bdd:	50                   	push   %eax
  100bde:	e8 33 ff ff ff       	call   100b16 <set_cursor_offset>
  100be3:	83 c4 10             	add    $0x10,%esp
  100be6:	90                   	nop
  100be7:	c9                   	leave
  100be8:	c3                   	ret

00100be9 <get_offset>:
  100be9:	55                   	push   %ebp
  100bea:	89 e5                	mov    %esp,%ebp
  100bec:	8b 55 0c             	mov    0xc(%ebp),%edx
  100bef:	89 d0                	mov    %edx,%eax
  100bf1:	c1 e0 02             	shl    $0x2,%eax
  100bf4:	01 d0                	add    %edx,%eax
  100bf6:	c1 e0 04             	shl    $0x4,%eax
  100bf9:	89 c2                	mov    %eax,%edx
  100bfb:	8b 45 08             	mov    0x8(%ebp),%eax
  100bfe:	01 d0                	add    %edx,%eax
  100c00:	01 c0                	add    %eax,%eax
  100c02:	5d                   	pop    %ebp
  100c03:	c3                   	ret

00100c04 <get_offset_row>:
  100c04:	55                   	push   %ebp
  100c05:	89 e5                	mov    %esp,%ebp
  100c07:	8b 4d 08             	mov    0x8(%ebp),%ecx
  100c0a:	ba 67 66 66 66       	mov    $0x66666667,%edx
  100c0f:	89 c8                	mov    %ecx,%eax
  100c11:	f7 ea                	imul   %edx
  100c13:	c1 fa 06             	sar    $0x6,%edx
  100c16:	89 c8                	mov    %ecx,%eax
  100c18:	c1 f8 1f             	sar    $0x1f,%eax
  100c1b:	29 c2                	sub    %eax,%edx
  100c1d:	89 d0                	mov    %edx,%eax
  100c1f:	5d                   	pop    %ebp
  100c20:	c3                   	ret

00100c21 <get_offset_col>:
  100c21:	55                   	push   %ebp
  100c22:	89 e5                	mov    %esp,%ebp
  100c24:	ff 75 08             	push   0x8(%ebp)
  100c27:	e8 d8 ff ff ff       	call   100c04 <get_offset_row>
  100c2c:	83 c4 04             	add    $0x4,%esp
  100c2f:	69 d0 60 ff ff ff    	imul   $0xffffff60,%eax,%edx
  100c35:	8b 45 08             	mov    0x8(%ebp),%eax
  100c38:	01 d0                	add    %edx,%eax
  100c3a:	89 c2                	mov    %eax,%edx
  100c3c:	c1 ea 1f             	shr    $0x1f,%edx
  100c3f:	01 d0                	add    %edx,%eax
  100c41:	d1 f8                	sar    %eax
  100c43:	c9                   	leave
  100c44:	c3                   	ret

00100c45 <kprintf>:
  100c45:	55                   	push   %ebp
  100c46:	89 e5                	mov    %esp,%ebp
  100c48:	83 ec 18             	sub    $0x18,%esp
  100c4b:	e8 20 f9 ff ff       	call   100570 <get_ebp>
  100c50:	89 45 f4             	mov    %eax,-0xc(%ebp)
  100c53:	8b 45 f4             	mov    -0xc(%ebp),%eax
  100c56:	83 c0 0c             	add    $0xc,%eax
  100c59:	89 45 f0             	mov    %eax,-0x10(%ebp)
  100c5c:	83 ec 08             	sub    $0x8,%esp
  100c5f:	ff 75 f0             	push   -0x10(%ebp)
  100c62:	ff 75 08             	push   0x8(%ebp)
  100c65:	e8 06 00 00 00       	call   100c70 <kprintf_args>
  100c6a:	83 c4 10             	add    $0x10,%esp
  100c6d:	90                   	nop
  100c6e:	c9                   	leave
  100c6f:	c3                   	ret

00100c70 <kprintf_args>:
  100c70:	55                   	push   %ebp
  100c71:	89 e5                	mov    %esp,%ebp
  100c73:	83 ec 28             	sub    $0x28,%esp
  100c76:	c7 45 f4 00 00 00 00 	movl   $0x0,-0xc(%ebp)
  100c7d:	8b 55 f4             	mov    -0xc(%ebp),%edx
  100c80:	8b 45 08             	mov    0x8(%ebp),%eax
  100c83:	01 d0                	add    %edx,%eax
  100c85:	0f b6 00             	movzbl (%eax),%eax
  100c88:	88 45 f3             	mov    %al,-0xd(%ebp)
  100c8b:	80 7d f3 00          	cmpb   $0x0,-0xd(%ebp)
  100c8f:	0f 84 f6 00 00 00    	je     100d8b <kprintf_args+0x11b>
  100c95:	80 7d f3 25          	cmpb   $0x25,-0xd(%ebp)
  100c99:	0f 85 d0 00 00 00    	jne    100d6f <kprintf_args+0xff>
  100c9f:	83 45 f4 01          	addl   $0x1,-0xc(%ebp)
  100ca3:	8b 55 f4             	mov    -0xc(%ebp),%edx
  100ca6:	8b 45 08             	mov    0x8(%ebp),%eax
  100ca9:	01 d0                	add    %edx,%eax
  100cab:	0f b6 00             	movzbl (%eax),%eax
  100cae:	88 45 f2             	mov    %al,-0xe(%ebp)
  100cb1:	80 7d f3 00          	cmpb   $0x0,-0xd(%ebp)
  100cb5:	0f 84 d3 00 00 00    	je     100d8e <kprintf_args+0x11e>
  100cbb:	80 7d f2 64          	cmpb   $0x64,-0xe(%ebp)
  100cbf:	75 1f                	jne    100ce0 <kprintf_args+0x70>
  100cc1:	8b 45 0c             	mov    0xc(%ebp),%eax
  100cc4:	8b 00                	mov    (%eax),%eax
  100cc6:	89 45 dc             	mov    %eax,-0x24(%ebp)
  100cc9:	83 ec 0c             	sub    $0xc,%esp
  100ccc:	ff 75 dc             	push   -0x24(%ebp)
  100ccf:	e8 2c fb ff ff       	call   100800 <kprint_dec>
  100cd4:	83 c4 10             	add    $0x10,%esp
  100cd7:	83 45 0c 04          	addl   $0x4,0xc(%ebp)
  100cdb:	e9 a2 00 00 00       	jmp    100d82 <kprintf_args+0x112>
  100ce0:	80 7d f2 75          	cmpb   $0x75,-0xe(%ebp)
  100ce4:	75 1d                	jne    100d03 <kprintf_args+0x93>
  100ce6:	8b 45 0c             	mov    0xc(%ebp),%eax
  100ce9:	8b 00                	mov    (%eax),%eax
  100ceb:	89 45 e0             	mov    %eax,-0x20(%ebp)
  100cee:	8b 45 e0             	mov    -0x20(%ebp),%eax
  100cf1:	83 ec 0c             	sub    $0xc,%esp
  100cf4:	50                   	push   %eax
  100cf5:	e8 06 fb ff ff       	call   100800 <kprint_dec>
  100cfa:	83 c4 10             	add    $0x10,%esp
  100cfd:	83 45 0c 04          	addl   $0x4,0xc(%ebp)
  100d01:	eb 7f                	jmp    100d82 <kprintf_args+0x112>
  100d03:	80 7d f2 78          	cmpb   $0x78,-0xe(%ebp)
  100d07:	75 1c                	jne    100d25 <kprintf_args+0xb5>
  100d09:	8b 45 0c             	mov    0xc(%ebp),%eax
  100d0c:	8b 00                	mov    (%eax),%eax
  100d0e:	89 45 e4             	mov    %eax,-0x1c(%ebp)
  100d11:	83 ec 0c             	sub    $0xc,%esp
  100d14:	ff 75 e4             	push   -0x1c(%ebp)
  100d17:	e8 71 fa ff ff       	call   10078d <kprint_hex>
  100d1c:	83 c4 10             	add    $0x10,%esp
  100d1f:	83 45 0c 04          	addl   $0x4,0xc(%ebp)
  100d23:	eb 5d                	jmp    100d82 <kprintf_args+0x112>
  100d25:	80 7d f2 63          	cmpb   $0x63,-0xe(%ebp)
  100d29:	75 22                	jne    100d4d <kprintf_args+0xdd>
  100d2b:	8b 45 0c             	mov    0xc(%ebp),%eax
  100d2e:	0f b6 00             	movzbl (%eax),%eax
  100d31:	88 45 eb             	mov    %al,-0x15(%ebp)
  100d34:	0f be 45 eb          	movsbl -0x15(%ebp),%eax
  100d38:	6a 0f                	push   $0xf
  100d3a:	6a ff                	push   $0xffffffff
  100d3c:	6a ff                	push   $0xffffffff
  100d3e:	50                   	push   %eax
  100d3f:	e8 52 fc ff ff       	call   100996 <print_char>
  100d44:	83 c4 10             	add    $0x10,%esp
  100d47:	83 45 0c 04          	addl   $0x4,0xc(%ebp)
  100d4b:	eb 35                	jmp    100d82 <kprintf_args+0x112>
  100d4d:	80 7d f2 73          	cmpb   $0x73,-0xe(%ebp)
  100d51:	75 2f                	jne    100d82 <kprintf_args+0x112>
  100d53:	8b 45 0c             	mov    0xc(%ebp),%eax
  100d56:	8b 00                	mov    (%eax),%eax
  100d58:	89 45 ec             	mov    %eax,-0x14(%ebp)
  100d5b:	83 ec 0c             	sub    $0xc,%esp
  100d5e:	ff 75 ec             	push   -0x14(%ebp)
  100d61:	e8 c4 f9 ff ff       	call   10072a <kprint>
  100d66:	83 c4 10             	add    $0x10,%esp
  100d69:	83 45 0c 04          	addl   $0x4,0xc(%ebp)
  100d6d:	eb 13                	jmp    100d82 <kprintf_args+0x112>
  100d6f:	0f be 45 f3          	movsbl -0xd(%ebp),%eax
  100d73:	6a 0f                	push   $0xf
  100d75:	6a ff                	push   $0xffffffff
  100d77:	6a ff                	push   $0xffffffff
  100d79:	50                   	push   %eax
  100d7a:	e8 17 fc ff ff       	call   100996 <print_char>
  100d7f:	83 c4 10             	add    $0x10,%esp
  100d82:	83 45 f4 01          	addl   $0x1,-0xc(%ebp)
  100d86:	e9 f2 fe ff ff       	jmp    100c7d <kprintf_args+0xd>
  100d8b:	90                   	nop
  100d8c:	eb 01                	jmp    100d8f <kprintf_args+0x11f>
  100d8e:	90                   	nop
  100d8f:	90                   	nop
  100d90:	c9                   	leave
  100d91:	c3                   	ret

00100d92 <kprintln>:
  100d92:	55                   	push   %ebp
  100d93:	89 e5                	mov    %esp,%ebp
  100d95:	83 ec 08             	sub    $0x8,%esp
  100d98:	83 ec 0c             	sub    $0xc,%esp
  100d9b:	68 5c 52 10 00       	push   $0x10525c
  100da0:	e8 a0 fe ff ff       	call   100c45 <kprintf>
  100da5:	83 c4 10             	add    $0x10,%esp
  100da8:	90                   	nop
  100da9:	c9                   	leave
  100daa:	c3                   	ret

00100dab <refresh_gdt>:
  100dab:	55                   	push   %ebp
  100dac:	89 e5                	mov    %esp,%ebp
  100dae:	83 ec 08             	sub    $0x8,%esp
  100db1:	83 ec 0c             	sub    $0xc,%esp
  100db4:	68 68 61 10 00       	push   $0x106168
  100db9:	e8 c8 f7 ff ff       	call   100586 <load_gdt>
  100dbe:	83 c4 10             	add    $0x10,%esp
  100dc1:	90                   	nop
  100dc2:	c9                   	leave
  100dc3:	c3                   	ret

00100dc4 <gdt_set_gate>:
  100dc4:	55                   	push   %ebp
  100dc5:	89 e5                	mov    %esp,%ebp
  100dc7:	83 ec 08             	sub    $0x8,%esp
  100dca:	8b 55 14             	mov    0x14(%ebp),%edx
  100dcd:	8b 45 18             	mov    0x18(%ebp),%eax
  100dd0:	88 55 fc             	mov    %dl,-0x4(%ebp)
  100dd3:	88 45 f8             	mov    %al,-0x8(%ebp)
  100dd6:	8b 45 10             	mov    0x10(%ebp),%eax
  100dd9:	89 c2                	mov    %eax,%edx
  100ddb:	8b 45 08             	mov    0x8(%ebp),%eax
  100dde:	66 89 14 c5 80 61 10 	mov    %dx,0x106180(,%eax,8)
  100de5:	00 
  100de6:	8b 45 0c             	mov    0xc(%ebp),%eax
  100de9:	89 c2                	mov    %eax,%edx
  100deb:	8b 45 08             	mov    0x8(%ebp),%eax
  100dee:	66 89 14 c5 82 61 10 	mov    %dx,0x106182(,%eax,8)
  100df5:	00 
  100df6:	8b 45 0c             	mov    0xc(%ebp),%eax
  100df9:	c1 e8 10             	shr    $0x10,%eax
  100dfc:	89 c2                	mov    %eax,%edx
  100dfe:	8b 45 08             	mov    0x8(%ebp),%eax
  100e01:	88 14 c5 84 61 10 00 	mov    %dl,0x106184(,%eax,8)
  100e08:	8b 45 08             	mov    0x8(%ebp),%eax
  100e0b:	0f b6 55 fc          	movzbl -0x4(%ebp),%edx
  100e0f:	88 14 c5 85 61 10 00 	mov    %dl,0x106185(,%eax,8)
  100e16:	8b 45 10             	mov    0x10(%ebp),%eax
  100e19:	c1 e8 10             	shr    $0x10,%eax
  100e1c:	83 e0 0f             	and    $0xf,%eax
  100e1f:	89 c2                	mov    %eax,%edx
  100e21:	8b 45 08             	mov    0x8(%ebp),%eax
  100e24:	88 14 c5 86 61 10 00 	mov    %dl,0x106186(,%eax,8)
  100e2b:	8b 45 08             	mov    0x8(%ebp),%eax
  100e2e:	0f b6 04 c5 86 61 10 	movzbl 0x106186(,%eax,8),%eax
  100e35:	00 
  100e36:	89 c2                	mov    %eax,%edx
  100e38:	0f b6 45 f8          	movzbl -0x8(%ebp),%eax
  100e3c:	c1 e0 04             	shl    $0x4,%eax
  100e3f:	09 d0                	or     %edx,%eax
  100e41:	89 c2                	mov    %eax,%edx
  100e43:	8b 45 08             	mov    0x8(%ebp),%eax
  100e46:	88 14 c5 86 61 10 00 	mov    %dl,0x106186(,%eax,8)
  100e4d:	8b 45 0c             	mov    0xc(%ebp),%eax
  100e50:	c1 e8 18             	shr    $0x18,%eax
  100e53:	89 c2                	mov    %eax,%edx
  100e55:	8b 45 08             	mov    0x8(%ebp),%eax
  100e58:	88 14 c5 87 61 10 00 	mov    %dl,0x106187(,%eax,8)
  100e5f:	90                   	nop
  100e60:	c9                   	leave
  100e61:	c3                   	ret

00100e62 <write_tss>:
  100e62:	55                   	push   %ebp
  100e63:	89 e5                	mov    %esp,%ebp
  100e65:	83 ec 28             	sub    $0x28,%esp
  100e68:	8b 45 0c             	mov    0xc(%ebp),%eax
  100e6b:	66 89 45 e4          	mov    %ax,-0x1c(%ebp)
  100e6f:	83 ec 04             	sub    $0x4,%esp
  100e72:	6a 68                	push   $0x68
  100e74:	6a 00                	push   $0x0
  100e76:	68 00 61 10 00       	push   $0x106100
  100e7b:	e8 52 0a 00 00       	call   1018d2 <kmemset>
  100e80:	83 c4 10             	add    $0x10,%esp
  100e83:	0f b7 45 e4          	movzwl -0x1c(%ebp),%eax
  100e87:	a3 08 61 10 00       	mov    %eax,0x106108
  100e8c:	8b 45 10             	mov    0x10(%ebp),%eax
  100e8f:	a3 04 61 10 00       	mov    %eax,0x106104
  100e94:	66 c7 05 66 61 10 00 	movw   $0x68,0x106166
  100e9b:	68 00 
  100e9d:	c7 05 4c 61 10 00 0b 	movl   $0xb,0x10614c
  100ea4:	00 00 00 
  100ea7:	c7 05 5c 61 10 00 13 	movl   $0x13,0x10615c
  100eae:	00 00 00 
  100eb1:	a1 5c 61 10 00       	mov    0x10615c,%eax
  100eb6:	a3 58 61 10 00       	mov    %eax,0x106158
  100ebb:	a1 58 61 10 00       	mov    0x106158,%eax
  100ec0:	a3 48 61 10 00       	mov    %eax,0x106148
  100ec5:	a1 48 61 10 00       	mov    0x106148,%eax
  100eca:	a3 54 61 10 00       	mov    %eax,0x106154
  100ecf:	a1 54 61 10 00       	mov    0x106154,%eax
  100ed4:	a3 50 61 10 00       	mov    %eax,0x106150
  100ed9:	c7 45 f4 00 61 10 00 	movl   $0x106100,-0xc(%ebp)
  100ee0:	8b 45 f4             	mov    -0xc(%ebp),%eax
  100ee3:	83 c0 68             	add    $0x68,%eax
  100ee6:	89 45 f0             	mov    %eax,-0x10(%ebp)
  100ee9:	8b 45 08             	mov    0x8(%ebp),%eax
  100eec:	83 ec 0c             	sub    $0xc,%esp
  100eef:	6a 00                	push   $0x0
  100ef1:	68 89 00 00 00       	push   $0x89
  100ef6:	ff 75 f0             	push   -0x10(%ebp)
  100ef9:	ff 75 f4             	push   -0xc(%ebp)
  100efc:	50                   	push   %eax
  100efd:	e8 c2 fe ff ff       	call   100dc4 <gdt_set_gate>
  100f02:	83 c4 20             	add    $0x20,%esp
  100f05:	90                   	nop
  100f06:	c9                   	leave
  100f07:	c3                   	ret

00100f08 <init_gdt>:
  100f08:	55                   	push   %ebp
  100f09:	89 e5                	mov    %esp,%ebp
  100f0b:	83 ec 18             	sub    $0x18,%esp
  100f0e:	66 c7 05 68 61 10 00 	movw   $0x37,0x106168
  100f15:	37 00 
  100f17:	b8 80 61 10 00       	mov    $0x106180,%eax
  100f1c:	a3 6a 61 10 00       	mov    %eax,0x10616a
  100f21:	6a 00                	push   $0x0
  100f23:	6a 00                	push   $0x0
  100f25:	6a 00                	push   $0x0
  100f27:	6a 00                	push   $0x0
  100f29:	6a 00                	push   $0x0
  100f2b:	e8 94 fe ff ff       	call   100dc4 <gdt_set_gate>
  100f30:	83 c4 14             	add    $0x14,%esp
  100f33:	6a 0c                	push   $0xc
  100f35:	68 98 00 00 00       	push   $0x98
  100f3a:	68 ff ff 0f 00       	push   $0xfffff
  100f3f:	6a 00                	push   $0x0
  100f41:	6a 01                	push   $0x1
  100f43:	e8 7c fe ff ff       	call   100dc4 <gdt_set_gate>
  100f48:	83 c4 14             	add    $0x14,%esp
  100f4b:	6a 0c                	push   $0xc
  100f4d:	68 92 00 00 00       	push   $0x92
  100f52:	68 ff ff 0f 00       	push   $0xfffff
  100f57:	6a 00                	push   $0x0
  100f59:	6a 02                	push   $0x2
  100f5b:	e8 64 fe ff ff       	call   100dc4 <gdt_set_gate>
  100f60:	83 c4 14             	add    $0x14,%esp
  100f63:	6a 0c                	push   $0xc
  100f65:	68 92 00 00 00       	push   $0x92
  100f6a:	6a 07                	push   $0x7
  100f6c:	6a 00                	push   $0x0
  100f6e:	6a 03                	push   $0x3
  100f70:	e8 4f fe ff ff       	call   100dc4 <gdt_set_gate>
  100f75:	83 c4 14             	add    $0x14,%esp
  100f78:	6a 0c                	push   $0xc
  100f7a:	68 f8 00 00 00       	push   $0xf8
  100f7f:	68 ff ff 0f 00       	push   $0xfffff
  100f84:	6a 00                	push   $0x0
  100f86:	6a 04                	push   $0x4
  100f88:	e8 37 fe ff ff       	call   100dc4 <gdt_set_gate>
  100f8d:	83 c4 14             	add    $0x14,%esp
  100f90:	6a 0c                	push   $0xc
  100f92:	68 f2 00 00 00       	push   $0xf2
  100f97:	68 ff ff 0f 00       	push   $0xfffff
  100f9c:	6a 00                	push   $0x0
  100f9e:	6a 05                	push   $0x5
  100fa0:	e8 1f fe ff ff       	call   100dc4 <gdt_set_gate>
  100fa5:	83 c4 14             	add    $0x14,%esp
  100fa8:	83 ec 04             	sub    $0x4,%esp
  100fab:	68 00 a0 00 00       	push   $0xa000
  100fb0:	6a 10                	push   $0x10
  100fb2:	6a 06                	push   $0x6
  100fb4:	e8 a9 fe ff ff       	call   100e62 <write_tss>
  100fb9:	83 c4 10             	add    $0x10,%esp
  100fbc:	b8 68 61 10 00       	mov    $0x106168,%eax
  100fc1:	83 ec 0c             	sub    $0xc,%esp
  100fc4:	50                   	push   %eax
  100fc5:	e8 e1 fd ff ff       	call   100dab <refresh_gdt>
  100fca:	83 c4 10             	add    $0x10,%esp
  100fcd:	e8 ac f5 ff ff       	call   10057e <refresh_tss>
  100fd2:	8d 45 f0             	lea    -0x10(%ebp),%eax
  100fd5:	89 45 f4             	mov    %eax,-0xc(%ebp)
  100fd8:	0f 00 4d f0          	str    -0x10(%ebp)
  100fdc:	8b 45 f0             	mov    -0x10(%ebp),%eax
  100fdf:	83 ec 08             	sub    $0x8,%esp
  100fe2:	50                   	push   %eax
  100fe3:	68 5e 52 10 00       	push   $0x10525e
  100fe8:	e8 58 fc ff ff       	call   100c45 <kprintf>
  100fed:	83 c4 10             	add    $0x10,%esp
  100ff0:	8b 15 08 61 10 00    	mov    0x106108,%edx
  100ff6:	a1 04 61 10 00       	mov    0x106104,%eax
  100ffb:	83 ec 04             	sub    $0x4,%esp
  100ffe:	52                   	push   %edx
  100fff:	50                   	push   %eax
  101000:	68 67 52 10 00       	push   $0x105267
  101005:	e8 3b fc ff ff       	call   100c45 <kprintf>
  10100a:	83 c4 10             	add    $0x10,%esp
  10100d:	90                   	nop
  10100e:	c9                   	leave
  10100f:	c3                   	ret

00101010 <update_tss_esp>:
  101010:	55                   	push   %ebp
  101011:	89 e5                	mov    %esp,%ebp
  101013:	8b 45 08             	mov    0x8(%ebp),%eax
  101016:	a3 04 61 10 00       	mov    %eax,0x106104
  10101b:	90                   	nop
  10101c:	5d                   	pop    %ebp
  10101d:	c3                   	ret

0010101e <set_idt_gate>:
  10101e:	55                   	push   %ebp
  10101f:	89 e5                	mov    %esp,%ebp
  101021:	8b 45 0c             	mov    0xc(%ebp),%eax
  101024:	89 c2                	mov    %eax,%edx
  101026:	8b 45 08             	mov    0x8(%ebp),%eax
  101029:	66 89 14 c5 c0 61 10 	mov    %dx,0x1061c0(,%eax,8)
  101030:	00 
  101031:	8b 45 08             	mov    0x8(%ebp),%eax
  101034:	66 c7 04 c5 c2 61 10 	movw   $0x8,0x1061c2(,%eax,8)
  10103b:	00 08 00 
  10103e:	8b 45 08             	mov    0x8(%ebp),%eax
  101041:	c6 04 c5 c4 61 10 00 	movb   $0x0,0x1061c4(,%eax,8)
  101048:	00 
  101049:	8b 45 08             	mov    0x8(%ebp),%eax
  10104c:	c6 04 c5 c5 61 10 00 	movb   $0x8e,0x1061c5(,%eax,8)
  101053:	8e 
  101054:	8b 45 0c             	mov    0xc(%ebp),%eax
  101057:	c1 e8 10             	shr    $0x10,%eax
  10105a:	89 c2                	mov    %eax,%edx
  10105c:	8b 45 08             	mov    0x8(%ebp),%eax
  10105f:	66 89 14 c5 c6 61 10 	mov    %dx,0x1061c6(,%eax,8)
  101066:	00 
  101067:	90                   	nop
  101068:	5d                   	pop    %ebp
  101069:	c3                   	ret

0010106a <set_idt>:
  10106a:	55                   	push   %ebp
  10106b:	89 e5                	mov    %esp,%ebp
  10106d:	b8 c0 61 10 00       	mov    $0x1061c0,%eax
  101072:	a3 c2 69 10 00       	mov    %eax,0x1069c2
  101077:	66 c7 05 c0 69 10 00 	movw   $0x7ff,0x1069c0
  10107e:	ff 07 
  101080:	b8 c0 69 10 00       	mov    $0x1069c0,%eax
  101085:	0f 01 18             	lidtl  (%eax)
  101088:	90                   	nop
  101089:	5d                   	pop    %ebp
  10108a:	c3                   	ret

0010108b <enable_interrupt>:
  10108b:	55                   	push   %ebp
  10108c:	89 e5                	mov    %esp,%ebp
  10108e:	fb                   	sti
  10108f:	90                   	nop
  101090:	5d                   	pop    %ebp
  101091:	c3                   	ret

00101092 <disable_interrupt>:
  101092:	55                   	push   %ebp
  101093:	89 e5                	mov    %esp,%ebp
  101095:	fa                   	cli
  101096:	90                   	nop
  101097:	5d                   	pop    %ebp
  101098:	c3                   	ret

00101099 <isr_install>:
  101099:	55                   	push   %ebp
  10109a:	89 e5                	mov    %esp,%ebp
  10109c:	83 ec 08             	sub    $0x8,%esp
  10109f:	b8 7f 03 10 00       	mov    $0x10037f,%eax
  1010a4:	83 ec 08             	sub    $0x8,%esp
  1010a7:	50                   	push   %eax
  1010a8:	6a 00                	push   $0x0
  1010aa:	e8 6f ff ff ff       	call   10101e <set_idt_gate>
  1010af:	83 c4 10             	add    $0x10,%esp
  1010b2:	b8 86 03 10 00       	mov    $0x100386,%eax
  1010b7:	83 ec 08             	sub    $0x8,%esp
  1010ba:	50                   	push   %eax
  1010bb:	6a 01                	push   $0x1
  1010bd:	e8 5c ff ff ff       	call   10101e <set_idt_gate>
  1010c2:	83 c4 10             	add    $0x10,%esp
  1010c5:	b8 8d 03 10 00       	mov    $0x10038d,%eax
  1010ca:	83 ec 08             	sub    $0x8,%esp
  1010cd:	50                   	push   %eax
  1010ce:	6a 02                	push   $0x2
  1010d0:	e8 49 ff ff ff       	call   10101e <set_idt_gate>
  1010d5:	83 c4 10             	add    $0x10,%esp
  1010d8:	b8 94 03 10 00       	mov    $0x100394,%eax
  1010dd:	83 ec 08             	sub    $0x8,%esp
  1010e0:	50                   	push   %eax
  1010e1:	6a 03                	push   $0x3
  1010e3:	e8 36 ff ff ff       	call   10101e <set_idt_gate>
  1010e8:	83 c4 10             	add    $0x10,%esp
  1010eb:	b8 9b 03 10 00       	mov    $0x10039b,%eax
  1010f0:	83 ec 08             	sub    $0x8,%esp
  1010f3:	50                   	push   %eax
  1010f4:	6a 04                	push   $0x4
  1010f6:	e8 23 ff ff ff       	call   10101e <set_idt_gate>
  1010fb:	83 c4 10             	add    $0x10,%esp
  1010fe:	b8 a1 03 10 00       	mov    $0x1003a1,%eax
  101103:	83 ec 08             	sub    $0x8,%esp
  101106:	50                   	push   %eax
  101107:	6a 05                	push   $0x5
  101109:	e8 10 ff ff ff       	call   10101e <set_idt_gate>
  10110e:	83 c4 10             	add    $0x10,%esp
  101111:	b8 a7 03 10 00       	mov    $0x1003a7,%eax
  101116:	83 ec 08             	sub    $0x8,%esp
  101119:	50                   	push   %eax
  10111a:	6a 06                	push   $0x6
  10111c:	e8 fd fe ff ff       	call   10101e <set_idt_gate>
  101121:	83 c4 10             	add    $0x10,%esp
  101124:	b8 ad 03 10 00       	mov    $0x1003ad,%eax
  101129:	83 ec 08             	sub    $0x8,%esp
  10112c:	50                   	push   %eax
  10112d:	6a 07                	push   $0x7
  10112f:	e8 ea fe ff ff       	call   10101e <set_idt_gate>
  101134:	83 c4 10             	add    $0x10,%esp
  101137:	b8 b6 03 10 00       	mov    $0x1003b6,%eax
  10113c:	83 ec 08             	sub    $0x8,%esp
  10113f:	50                   	push   %eax
  101140:	6a 08                	push   $0x8
  101142:	e8 d7 fe ff ff       	call   10101e <set_idt_gate>
  101147:	83 c4 10             	add    $0x10,%esp
  10114a:	b8 bd 03 10 00       	mov    $0x1003bd,%eax
  10114f:	83 ec 08             	sub    $0x8,%esp
  101152:	50                   	push   %eax
  101153:	6a 09                	push   $0x9
  101155:	e8 c4 fe ff ff       	call   10101e <set_idt_gate>
  10115a:	83 c4 10             	add    $0x10,%esp
  10115d:	b8 c6 03 10 00       	mov    $0x1003c6,%eax
  101162:	83 ec 08             	sub    $0x8,%esp
  101165:	50                   	push   %eax
  101166:	6a 0a                	push   $0xa
  101168:	e8 b1 fe ff ff       	call   10101e <set_idt_gate>
  10116d:	83 c4 10             	add    $0x10,%esp
  101170:	b8 cd 03 10 00       	mov    $0x1003cd,%eax
  101175:	83 ec 08             	sub    $0x8,%esp
  101178:	50                   	push   %eax
  101179:	6a 0b                	push   $0xb
  10117b:	e8 9e fe ff ff       	call   10101e <set_idt_gate>
  101180:	83 c4 10             	add    $0x10,%esp
  101183:	b8 d4 03 10 00       	mov    $0x1003d4,%eax
  101188:	83 ec 08             	sub    $0x8,%esp
  10118b:	50                   	push   %eax
  10118c:	6a 0c                	push   $0xc
  10118e:	e8 8b fe ff ff       	call   10101e <set_idt_gate>
  101193:	83 c4 10             	add    $0x10,%esp
  101196:	b8 db 03 10 00       	mov    $0x1003db,%eax
  10119b:	83 ec 08             	sub    $0x8,%esp
  10119e:	50                   	push   %eax
  10119f:	6a 0d                	push   $0xd
  1011a1:	e8 78 fe ff ff       	call   10101e <set_idt_gate>
  1011a6:	83 c4 10             	add    $0x10,%esp
  1011a9:	b8 e2 03 10 00       	mov    $0x1003e2,%eax
  1011ae:	83 ec 08             	sub    $0x8,%esp
  1011b1:	50                   	push   %eax
  1011b2:	6a 0e                	push   $0xe
  1011b4:	e8 65 fe ff ff       	call   10101e <set_idt_gate>
  1011b9:	83 c4 10             	add    $0x10,%esp
  1011bc:	b8 e9 03 10 00       	mov    $0x1003e9,%eax
  1011c1:	83 ec 08             	sub    $0x8,%esp
  1011c4:	50                   	push   %eax
  1011c5:	6a 0f                	push   $0xf
  1011c7:	e8 52 fe ff ff       	call   10101e <set_idt_gate>
  1011cc:	83 c4 10             	add    $0x10,%esp
  1011cf:	b8 f2 03 10 00       	mov    $0x1003f2,%eax
  1011d4:	83 ec 08             	sub    $0x8,%esp
  1011d7:	50                   	push   %eax
  1011d8:	6a 10                	push   $0x10
  1011da:	e8 3f fe ff ff       	call   10101e <set_idt_gate>
  1011df:	83 c4 10             	add    $0x10,%esp
  1011e2:	b8 fb 03 10 00       	mov    $0x1003fb,%eax
  1011e7:	83 ec 08             	sub    $0x8,%esp
  1011ea:	50                   	push   %eax
  1011eb:	6a 11                	push   $0x11
  1011ed:	e8 2c fe ff ff       	call   10101e <set_idt_gate>
  1011f2:	83 c4 10             	add    $0x10,%esp
  1011f5:	b8 02 04 10 00       	mov    $0x100402,%eax
  1011fa:	83 ec 08             	sub    $0x8,%esp
  1011fd:	50                   	push   %eax
  1011fe:	6a 12                	push   $0x12
  101200:	e8 19 fe ff ff       	call   10101e <set_idt_gate>
  101205:	83 c4 10             	add    $0x10,%esp
  101208:	b8 0b 04 10 00       	mov    $0x10040b,%eax
  10120d:	83 ec 08             	sub    $0x8,%esp
  101210:	50                   	push   %eax
  101211:	6a 13                	push   $0x13
  101213:	e8 06 fe ff ff       	call   10101e <set_idt_gate>
  101218:	83 c4 10             	add    $0x10,%esp
  10121b:	b8 14 04 10 00       	mov    $0x100414,%eax
  101220:	83 ec 08             	sub    $0x8,%esp
  101223:	50                   	push   %eax
  101224:	6a 14                	push   $0x14
  101226:	e8 f3 fd ff ff       	call   10101e <set_idt_gate>
  10122b:	83 c4 10             	add    $0x10,%esp
  10122e:	b8 1d 04 10 00       	mov    $0x10041d,%eax
  101233:	83 ec 08             	sub    $0x8,%esp
  101236:	50                   	push   %eax
  101237:	6a 15                	push   $0x15
  101239:	e8 e0 fd ff ff       	call   10101e <set_idt_gate>
  10123e:	83 c4 10             	add    $0x10,%esp
  101241:	b8 24 04 10 00       	mov    $0x100424,%eax
  101246:	83 ec 08             	sub    $0x8,%esp
  101249:	50                   	push   %eax
  10124a:	6a 16                	push   $0x16
  10124c:	e8 cd fd ff ff       	call   10101e <set_idt_gate>
  101251:	83 c4 10             	add    $0x10,%esp
  101254:	b8 2d 04 10 00       	mov    $0x10042d,%eax
  101259:	83 ec 08             	sub    $0x8,%esp
  10125c:	50                   	push   %eax
  10125d:	6a 17                	push   $0x17
  10125f:	e8 ba fd ff ff       	call   10101e <set_idt_gate>
  101264:	83 c4 10             	add    $0x10,%esp
  101267:	b8 36 04 10 00       	mov    $0x100436,%eax
  10126c:	83 ec 08             	sub    $0x8,%esp
  10126f:	50                   	push   %eax
  101270:	6a 18                	push   $0x18
  101272:	e8 a7 fd ff ff       	call   10101e <set_idt_gate>
  101277:	83 c4 10             	add    $0x10,%esp
  10127a:	b8 3f 04 10 00       	mov    $0x10043f,%eax
  10127f:	83 ec 08             	sub    $0x8,%esp
  101282:	50                   	push   %eax
  101283:	6a 19                	push   $0x19
  101285:	e8 94 fd ff ff       	call   10101e <set_idt_gate>
  10128a:	83 c4 10             	add    $0x10,%esp
  10128d:	b8 48 04 10 00       	mov    $0x100448,%eax
  101292:	83 ec 08             	sub    $0x8,%esp
  101295:	50                   	push   %eax
  101296:	6a 1a                	push   $0x1a
  101298:	e8 81 fd ff ff       	call   10101e <set_idt_gate>
  10129d:	83 c4 10             	add    $0x10,%esp
  1012a0:	b8 51 04 10 00       	mov    $0x100451,%eax
  1012a5:	83 ec 08             	sub    $0x8,%esp
  1012a8:	50                   	push   %eax
  1012a9:	6a 1b                	push   $0x1b
  1012ab:	e8 6e fd ff ff       	call   10101e <set_idt_gate>
  1012b0:	83 c4 10             	add    $0x10,%esp
  1012b3:	b8 5a 04 10 00       	mov    $0x10045a,%eax
  1012b8:	83 ec 08             	sub    $0x8,%esp
  1012bb:	50                   	push   %eax
  1012bc:	6a 1c                	push   $0x1c
  1012be:	e8 5b fd ff ff       	call   10101e <set_idt_gate>
  1012c3:	83 c4 10             	add    $0x10,%esp
  1012c6:	b8 63 04 10 00       	mov    $0x100463,%eax
  1012cb:	83 ec 08             	sub    $0x8,%esp
  1012ce:	50                   	push   %eax
  1012cf:	6a 1d                	push   $0x1d
  1012d1:	e8 48 fd ff ff       	call   10101e <set_idt_gate>
  1012d6:	83 c4 10             	add    $0x10,%esp
  1012d9:	b8 6a 04 10 00       	mov    $0x10046a,%eax
  1012de:	83 ec 08             	sub    $0x8,%esp
  1012e1:	50                   	push   %eax
  1012e2:	6a 1e                	push   $0x1e
  1012e4:	e8 35 fd ff ff       	call   10101e <set_idt_gate>
  1012e9:	83 c4 10             	add    $0x10,%esp
  1012ec:	b8 71 04 10 00       	mov    $0x100471,%eax
  1012f1:	83 ec 08             	sub    $0x8,%esp
  1012f4:	50                   	push   %eax
  1012f5:	6a 1f                	push   $0x1f
  1012f7:	e8 22 fd ff ff       	call   10101e <set_idt_gate>
  1012fc:	83 c4 10             	add    $0x10,%esp
  1012ff:	83 ec 08             	sub    $0x8,%esp
  101302:	6a 11                	push   $0x11
  101304:	6a 20                	push   $0x20
  101306:	e8 6a 03 00 00       	call   101675 <port_byte_out>
  10130b:	83 c4 10             	add    $0x10,%esp
  10130e:	83 ec 08             	sub    $0x8,%esp
  101311:	6a 11                	push   $0x11
  101313:	68 a0 00 00 00       	push   $0xa0
  101318:	e8 58 03 00 00       	call   101675 <port_byte_out>
  10131d:	83 c4 10             	add    $0x10,%esp
  101320:	83 ec 08             	sub    $0x8,%esp
  101323:	6a 20                	push   $0x20
  101325:	6a 21                	push   $0x21
  101327:	e8 49 03 00 00       	call   101675 <port_byte_out>
  10132c:	83 c4 10             	add    $0x10,%esp
  10132f:	83 ec 08             	sub    $0x8,%esp
  101332:	6a 28                	push   $0x28
  101334:	68 a1 00 00 00       	push   $0xa1
  101339:	e8 37 03 00 00       	call   101675 <port_byte_out>
  10133e:	83 c4 10             	add    $0x10,%esp
  101341:	83 ec 08             	sub    $0x8,%esp
  101344:	6a 04                	push   $0x4
  101346:	6a 21                	push   $0x21
  101348:	e8 28 03 00 00       	call   101675 <port_byte_out>
  10134d:	83 c4 10             	add    $0x10,%esp
  101350:	83 ec 08             	sub    $0x8,%esp
  101353:	6a 02                	push   $0x2
  101355:	68 a1 00 00 00       	push   $0xa1
  10135a:	e8 16 03 00 00       	call   101675 <port_byte_out>
  10135f:	83 c4 10             	add    $0x10,%esp
  101362:	83 ec 08             	sub    $0x8,%esp
  101365:	6a 01                	push   $0x1
  101367:	6a 21                	push   $0x21
  101369:	e8 07 03 00 00       	call   101675 <port_byte_out>
  10136e:	83 c4 10             	add    $0x10,%esp
  101371:	83 ec 08             	sub    $0x8,%esp
  101374:	6a 01                	push   $0x1
  101376:	68 a1 00 00 00       	push   $0xa1
  10137b:	e8 f5 02 00 00       	call   101675 <port_byte_out>
  101380:	83 c4 10             	add    $0x10,%esp
  101383:	83 ec 08             	sub    $0x8,%esp
  101386:	6a 00                	push   $0x0
  101388:	6a 21                	push   $0x21
  10138a:	e8 e6 02 00 00       	call   101675 <port_byte_out>
  10138f:	83 c4 10             	add    $0x10,%esp
  101392:	83 ec 08             	sub    $0x8,%esp
  101395:	6a 00                	push   $0x0
  101397:	68 a1 00 00 00       	push   $0xa1
  10139c:	e8 d4 02 00 00       	call   101675 <port_byte_out>
  1013a1:	83 c4 10             	add    $0x10,%esp
  1013a4:	b8 7a 04 10 00       	mov    $0x10047a,%eax
  1013a9:	83 ec 08             	sub    $0x8,%esp
  1013ac:	50                   	push   %eax
  1013ad:	6a 20                	push   $0x20
  1013af:	e8 6a fc ff ff       	call   10101e <set_idt_gate>
  1013b4:	83 c4 10             	add    $0x10,%esp
  1013b7:	b8 84 04 10 00       	mov    $0x100484,%eax
  1013bc:	83 ec 08             	sub    $0x8,%esp
  1013bf:	50                   	push   %eax
  1013c0:	6a 21                	push   $0x21
  1013c2:	e8 57 fc ff ff       	call   10101e <set_idt_gate>
  1013c7:	83 c4 10             	add    $0x10,%esp
  1013ca:	b8 8d 04 10 00       	mov    $0x10048d,%eax
  1013cf:	83 ec 08             	sub    $0x8,%esp
  1013d2:	50                   	push   %eax
  1013d3:	6a 22                	push   $0x22
  1013d5:	e8 44 fc ff ff       	call   10101e <set_idt_gate>
  1013da:	83 c4 10             	add    $0x10,%esp
  1013dd:	b8 96 04 10 00       	mov    $0x100496,%eax
  1013e2:	83 ec 08             	sub    $0x8,%esp
  1013e5:	50                   	push   %eax
  1013e6:	6a 23                	push   $0x23
  1013e8:	e8 31 fc ff ff       	call   10101e <set_idt_gate>
  1013ed:	83 c4 10             	add    $0x10,%esp
  1013f0:	b8 9f 04 10 00       	mov    $0x10049f,%eax
  1013f5:	83 ec 08             	sub    $0x8,%esp
  1013f8:	50                   	push   %eax
  1013f9:	6a 24                	push   $0x24
  1013fb:	e8 1e fc ff ff       	call   10101e <set_idt_gate>
  101400:	83 c4 10             	add    $0x10,%esp
  101403:	b8 a8 04 10 00       	mov    $0x1004a8,%eax
  101408:	83 ec 08             	sub    $0x8,%esp
  10140b:	50                   	push   %eax
  10140c:	6a 25                	push   $0x25
  10140e:	e8 0b fc ff ff       	call   10101e <set_idt_gate>
  101413:	83 c4 10             	add    $0x10,%esp
  101416:	b8 b1 04 10 00       	mov    $0x1004b1,%eax
  10141b:	83 ec 08             	sub    $0x8,%esp
  10141e:	50                   	push   %eax
  10141f:	6a 26                	push   $0x26
  101421:	e8 f8 fb ff ff       	call   10101e <set_idt_gate>
  101426:	83 c4 10             	add    $0x10,%esp
  101429:	b8 ba 04 10 00       	mov    $0x1004ba,%eax
  10142e:	83 ec 08             	sub    $0x8,%esp
  101431:	50                   	push   %eax
  101432:	6a 27                	push   $0x27
  101434:	e8 e5 fb ff ff       	call   10101e <set_idt_gate>
  101439:	83 c4 10             	add    $0x10,%esp
  10143c:	b8 c3 04 10 00       	mov    $0x1004c3,%eax
  101441:	83 ec 08             	sub    $0x8,%esp
  101444:	50                   	push   %eax
  101445:	6a 28                	push   $0x28
  101447:	e8 d2 fb ff ff       	call   10101e <set_idt_gate>
  10144c:	83 c4 10             	add    $0x10,%esp
  10144f:	b8 cc 04 10 00       	mov    $0x1004cc,%eax
  101454:	83 ec 08             	sub    $0x8,%esp
  101457:	50                   	push   %eax
  101458:	6a 29                	push   $0x29
  10145a:	e8 bf fb ff ff       	call   10101e <set_idt_gate>
  10145f:	83 c4 10             	add    $0x10,%esp
  101462:	b8 d5 04 10 00       	mov    $0x1004d5,%eax
  101467:	83 ec 08             	sub    $0x8,%esp
  10146a:	50                   	push   %eax
  10146b:	6a 2a                	push   $0x2a
  10146d:	e8 ac fb ff ff       	call   10101e <set_idt_gate>
  101472:	83 c4 10             	add    $0x10,%esp
  101475:	b8 de 04 10 00       	mov    $0x1004de,%eax
  10147a:	83 ec 08             	sub    $0x8,%esp
  10147d:	50                   	push   %eax
  10147e:	6a 2b                	push   $0x2b
  101480:	e8 99 fb ff ff       	call   10101e <set_idt_gate>
  101485:	83 c4 10             	add    $0x10,%esp
  101488:	b8 e7 04 10 00       	mov    $0x1004e7,%eax
  10148d:	83 ec 08             	sub    $0x8,%esp
  101490:	50                   	push   %eax
  101491:	6a 2c                	push   $0x2c
  101493:	e8 86 fb ff ff       	call   10101e <set_idt_gate>
  101498:	83 c4 10             	add    $0x10,%esp
  10149b:	b8 f0 04 10 00       	mov    $0x1004f0,%eax
  1014a0:	83 ec 08             	sub    $0x8,%esp
  1014a3:	50                   	push   %eax
  1014a4:	6a 2d                	push   $0x2d
  1014a6:	e8 73 fb ff ff       	call   10101e <set_idt_gate>
  1014ab:	83 c4 10             	add    $0x10,%esp
  1014ae:	b8 f9 04 10 00       	mov    $0x1004f9,%eax
  1014b3:	83 ec 08             	sub    $0x8,%esp
  1014b6:	50                   	push   %eax
  1014b7:	6a 2e                	push   $0x2e
  1014b9:	e8 60 fb ff ff       	call   10101e <set_idt_gate>
  1014be:	83 c4 10             	add    $0x10,%esp
  1014c1:	b8 02 05 10 00       	mov    $0x100502,%eax
  1014c6:	83 ec 08             	sub    $0x8,%esp
  1014c9:	50                   	push   %eax
  1014ca:	6a 2f                	push   $0x2f
  1014cc:	e8 4d fb ff ff       	call   10101e <set_idt_gate>
  1014d1:	83 c4 10             	add    $0x10,%esp
  1014d4:	b8 0b 05 10 00       	mov    $0x10050b,%eax
  1014d9:	83 ec 08             	sub    $0x8,%esp
  1014dc:	50                   	push   %eax
  1014dd:	68 80 00 00 00       	push   $0x80
  1014e2:	e8 37 fb ff ff       	call   10101e <set_idt_gate>
  1014e7:	83 c4 10             	add    $0x10,%esp
  1014ea:	e8 7b fb ff ff       	call   10106a <set_idt>
  1014ef:	90                   	nop
  1014f0:	c9                   	leave
  1014f1:	c3                   	ret

001014f2 <isr_handler>:
  1014f2:	55                   	push   %ebp
  1014f3:	89 e5                	mov    %esp,%ebp
  1014f5:	83 ec 18             	sub    $0x18,%esp
  1014f8:	8b 45 08             	mov    0x8(%ebp),%eax
  1014fb:	8b 40 28             	mov    0x28(%eax),%eax
  1014fe:	89 45 f4             	mov    %eax,-0xc(%ebp)
  101501:	8b 45 08             	mov    0x8(%ebp),%eax
  101504:	8b 48 28             	mov    0x28(%eax),%ecx
  101507:	8b 45 08             	mov    0x8(%ebp),%eax
  10150a:	8b 40 24             	mov    0x24(%eax),%eax
  10150d:	8b 14 85 e0 4f 10 00 	mov    0x104fe0(,%eax,4),%edx
  101514:	8b 45 08             	mov    0x8(%ebp),%eax
  101517:	8b 40 24             	mov    0x24(%eax),%eax
  10151a:	51                   	push   %ecx
  10151b:	52                   	push   %edx
  10151c:	50                   	push   %eax
  10151d:	68 ae 53 10 00       	push   $0x1053ae
  101522:	e8 1e f7 ff ff       	call   100c45 <kprintf>
  101527:	83 c4 10             	add    $0x10,%esp
  10152a:	8b 45 08             	mov    0x8(%ebp),%eax
  10152d:	8b 40 24             	mov    0x24(%eax),%eax
  101530:	8b 04 85 e0 69 10 00 	mov    0x1069e0(,%eax,4),%eax
  101537:	85 c0                	test   %eax,%eax
  101539:	74 1e                	je     101559 <isr_handler+0x67>
  10153b:	8b 45 08             	mov    0x8(%ebp),%eax
  10153e:	8b 40 24             	mov    0x24(%eax),%eax
  101541:	8b 04 85 e0 69 10 00 	mov    0x1069e0(,%eax,4),%eax
  101548:	89 45 f0             	mov    %eax,-0x10(%ebp)
  10154b:	83 ec 0c             	sub    $0xc,%esp
  10154e:	ff 75 08             	push   0x8(%ebp)
  101551:	8b 45 f0             	mov    -0x10(%ebp),%eax
  101554:	ff d0                	call   *%eax
  101556:	83 c4 10             	add    $0x10,%esp
  101559:	8b 45 08             	mov    0x8(%ebp),%eax
  10155c:	8b 40 24             	mov    0x24(%eax),%eax
  10155f:	83 f8 06             	cmp    $0x6,%eax
  101562:	75 17                	jne    10157b <isr_handler+0x89>
  101564:	8b 45 08             	mov    0x8(%ebp),%eax
  101567:	8b 40 28             	mov    0x28(%eax),%eax
  10156a:	83 ec 08             	sub    $0x8,%esp
  10156d:	50                   	push   %eax
  10156e:	68 ca 53 10 00       	push   $0x1053ca
  101573:	e8 c8 00 00 00       	call   101640 <panic>
  101578:	83 c4 10             	add    $0x10,%esp
  10157b:	8b 45 08             	mov    0x8(%ebp),%eax
  10157e:	8b 40 24             	mov    0x24(%eax),%eax
  101581:	83 f8 0d             	cmp    $0xd,%eax
  101584:	75 1a                	jne    1015a0 <isr_handler+0xae>
  101586:	8b 45 08             	mov    0x8(%ebp),%eax
  101589:	8b 40 28             	mov    0x28(%eax),%eax
  10158c:	83 ec 04             	sub    $0x4,%esp
  10158f:	ff 75 f4             	push   -0xc(%ebp)
  101592:	50                   	push   %eax
  101593:	68 e0 53 10 00       	push   $0x1053e0
  101598:	e8 a3 00 00 00       	call   101640 <panic>
  10159d:	83 c4 10             	add    $0x10,%esp
  1015a0:	90                   	nop
  1015a1:	c9                   	leave
  1015a2:	c3                   	ret

001015a3 <register_interrupt_handler>:
  1015a3:	55                   	push   %ebp
  1015a4:	89 e5                	mov    %esp,%ebp
  1015a6:	83 ec 04             	sub    $0x4,%esp
  1015a9:	8b 45 08             	mov    0x8(%ebp),%eax
  1015ac:	88 45 fc             	mov    %al,-0x4(%ebp)
  1015af:	0f b6 45 fc          	movzbl -0x4(%ebp),%eax
  1015b3:	8b 55 0c             	mov    0xc(%ebp),%edx
  1015b6:	89 14 85 e0 69 10 00 	mov    %edx,0x1069e0(,%eax,4)
  1015bd:	90                   	nop
  1015be:	c9                   	leave
  1015bf:	c3                   	ret

001015c0 <irq_handler>:
  1015c0:	55                   	push   %ebp
  1015c1:	89 e5                	mov    %esp,%ebp
  1015c3:	83 ec 18             	sub    $0x18,%esp
  1015c6:	8b 45 08             	mov    0x8(%ebp),%eax
  1015c9:	8b 40 24             	mov    0x24(%eax),%eax
  1015cc:	83 f8 27             	cmp    $0x27,%eax
  1015cf:	76 12                	jbe    1015e3 <irq_handler+0x23>
  1015d1:	83 ec 08             	sub    $0x8,%esp
  1015d4:	6a 20                	push   $0x20
  1015d6:	68 a0 00 00 00       	push   $0xa0
  1015db:	e8 95 00 00 00       	call   101675 <port_byte_out>
  1015e0:	83 c4 10             	add    $0x10,%esp
  1015e3:	83 ec 08             	sub    $0x8,%esp
  1015e6:	6a 20                	push   $0x20
  1015e8:	6a 20                	push   $0x20
  1015ea:	e8 86 00 00 00       	call   101675 <port_byte_out>
  1015ef:	83 c4 10             	add    $0x10,%esp
  1015f2:	8b 45 08             	mov    0x8(%ebp),%eax
  1015f5:	8b 40 24             	mov    0x24(%eax),%eax
  1015f8:	8b 04 85 e0 69 10 00 	mov    0x1069e0(,%eax,4),%eax
  1015ff:	85 c0                	test   %eax,%eax
  101601:	74 1e                	je     101621 <irq_handler+0x61>
  101603:	8b 45 08             	mov    0x8(%ebp),%eax
  101606:	8b 40 24             	mov    0x24(%eax),%eax
  101609:	8b 04 85 e0 69 10 00 	mov    0x1069e0(,%eax,4),%eax
  101610:	89 45 f4             	mov    %eax,-0xc(%ebp)
  101613:	83 ec 0c             	sub    $0xc,%esp
  101616:	ff 75 08             	push   0x8(%ebp)
  101619:	8b 45 f4             	mov    -0xc(%ebp),%eax
  10161c:	ff d0                	call   *%eax
  10161e:	83 c4 10             	add    $0x10,%esp
  101621:	90                   	nop
  101622:	c9                   	leave
  101623:	c3                   	ret

00101624 <irq_install>:
  101624:	55                   	push   %ebp
  101625:	89 e5                	mov    %esp,%ebp
  101627:	83 ec 08             	sub    $0x8,%esp
  10162a:	fb                   	sti
  10162b:	83 ec 0c             	sub    $0xc,%esp
  10162e:	6a 32                	push   $0x32
  101630:	e8 a5 01 00 00       	call   1017da <init_timer>
  101635:	83 c4 10             	add    $0x10,%esp
  101638:	e8 18 f0 ff ff       	call   100655 <init_keyboard>
  10163d:	90                   	nop
  10163e:	c9                   	leave
  10163f:	c3                   	ret

00101640 <panic>:
  101640:	55                   	push   %ebp
  101641:	89 e5                	mov    %esp,%ebp
  101643:	83 ec 08             	sub    $0x8,%esp
  101646:	83 ec 0c             	sub    $0xc,%esp
  101649:	ff 75 08             	push   0x8(%ebp)
  10164c:	e8 f4 f5 ff ff       	call   100c45 <kprintf>
  101651:	83 c4 10             	add    $0x10,%esp
  101654:	f4                   	hlt
  101655:	90                   	nop
  101656:	c9                   	leave
  101657:	c3                   	ret

00101658 <port_byte_in>:
  101658:	55                   	push   %ebp
  101659:	89 e5                	mov    %esp,%ebp
  10165b:	83 ec 14             	sub    $0x14,%esp
  10165e:	8b 45 08             	mov    0x8(%ebp),%eax
  101661:	66 89 45 ec          	mov    %ax,-0x14(%ebp)
  101665:	0f b7 45 ec          	movzwl -0x14(%ebp),%eax
  101669:	89 c2                	mov    %eax,%edx
  10166b:	ec                   	in     (%dx),%al
  10166c:	88 45 ff             	mov    %al,-0x1(%ebp)
  10166f:	0f b6 45 ff          	movzbl -0x1(%ebp),%eax
  101673:	c9                   	leave
  101674:	c3                   	ret

00101675 <port_byte_out>:
  101675:	55                   	push   %ebp
  101676:	89 e5                	mov    %esp,%ebp
  101678:	83 ec 08             	sub    $0x8,%esp
  10167b:	8b 55 08             	mov    0x8(%ebp),%edx
  10167e:	8b 45 0c             	mov    0xc(%ebp),%eax
  101681:	66 89 55 fc          	mov    %dx,-0x4(%ebp)
  101685:	88 45 f8             	mov    %al,-0x8(%ebp)
  101688:	0f b6 45 f8          	movzbl -0x8(%ebp),%eax
  10168c:	0f b7 55 fc          	movzwl -0x4(%ebp),%edx
  101690:	ee                   	out    %al,(%dx)
  101691:	90                   	nop
  101692:	c9                   	leave
  101693:	c3                   	ret

00101694 <port_word_in>:
  101694:	55                   	push   %ebp
  101695:	89 e5                	mov    %esp,%ebp
  101697:	83 ec 14             	sub    $0x14,%esp
  10169a:	8b 45 08             	mov    0x8(%ebp),%eax
  10169d:	66 89 45 ec          	mov    %ax,-0x14(%ebp)
  1016a1:	0f b7 45 ec          	movzwl -0x14(%ebp),%eax
  1016a5:	89 c2                	mov    %eax,%edx
  1016a7:	66 ed                	in     (%dx),%ax
  1016a9:	66 89 45 fe          	mov    %ax,-0x2(%ebp)
  1016ad:	0f b7 45 fe          	movzwl -0x2(%ebp),%eax
  1016b1:	c9                   	leave
  1016b2:	c3                   	ret

001016b3 <port_word_out>:
  1016b3:	55                   	push   %ebp
  1016b4:	89 e5                	mov    %esp,%ebp
  1016b6:	83 ec 08             	sub    $0x8,%esp
  1016b9:	8b 55 08             	mov    0x8(%ebp),%edx
  1016bc:	8b 45 0c             	mov    0xc(%ebp),%eax
  1016bf:	66 89 55 fc          	mov    %dx,-0x4(%ebp)
  1016c3:	66 89 45 f8          	mov    %ax,-0x8(%ebp)
  1016c7:	0f b7 45 f8          	movzwl -0x8(%ebp),%eax
  1016cb:	0f b7 55 fc          	movzwl -0x4(%ebp),%edx
  1016cf:	66 ef                	out    %ax,(%dx)
  1016d1:	90                   	nop
  1016d2:	c9                   	leave
  1016d3:	c3                   	ret

001016d4 <initialise_syscalls>:
  1016d4:	55                   	push   %ebp
  1016d5:	89 e5                	mov    %esp,%ebp
  1016d7:	83 ec 08             	sub    $0x8,%esp
  1016da:	83 ec 08             	sub    $0x8,%esp
  1016dd:	68 0c 17 10 00       	push   $0x10170c
  1016e2:	68 80 00 00 00       	push   $0x80
  1016e7:	e8 b7 fe ff ff       	call   1015a3 <register_interrupt_handler>
  1016ec:	83 c4 10             	add    $0x10,%esp
  1016ef:	90                   	nop
  1016f0:	c9                   	leave
  1016f1:	c3                   	ret

001016f2 <example_call>:
  1016f2:	55                   	push   %ebp
  1016f3:	89 e5                	mov    %esp,%ebp
  1016f5:	83 ec 08             	sub    $0x8,%esp
  1016f8:	83 ec 0c             	sub    $0xc,%esp
  1016fb:	68 fd 53 10 00       	push   $0x1053fd
  101700:	e8 40 f5 ff ff       	call   100c45 <kprintf>
  101705:	83 c4 10             	add    $0x10,%esp
  101708:	f4                   	hlt
  101709:	90                   	nop
  10170a:	c9                   	leave
  10170b:	c3                   	ret

0010170c <syscall_handler>:
  10170c:	55                   	push   %ebp
  10170d:	89 e5                	mov    %esp,%ebp
  10170f:	57                   	push   %edi
  101710:	56                   	push   %esi
  101711:	53                   	push   %ebx
  101712:	83 ec 1c             	sub    $0x1c,%esp
  101715:	83 ec 0c             	sub    $0xc,%esp
  101718:	68 18 54 10 00       	push   $0x105418
  10171d:	e8 23 f5 ff ff       	call   100c45 <kprintf>
  101722:	83 c4 10             	add    $0x10,%esp
  101725:	8b 45 08             	mov    0x8(%ebp),%eax
  101728:	8b 50 20             	mov    0x20(%eax),%edx
  10172b:	a1 6c 50 10 00       	mov    0x10506c,%eax
  101730:	39 c2                	cmp    %eax,%edx
  101732:	72 19                	jb     10174d <syscall_handler+0x41>
  101734:	8b 45 08             	mov    0x8(%ebp),%eax
  101737:	8b 40 20             	mov    0x20(%eax),%eax
  10173a:	83 ec 08             	sub    $0x8,%esp
  10173d:	50                   	push   %eax
  10173e:	68 29 54 10 00       	push   $0x105429
  101743:	e8 fd f4 ff ff       	call   100c45 <kprintf>
  101748:	83 c4 10             	add    $0x10,%esp
  10174b:	eb 40                	jmp    10178d <syscall_handler+0x81>
  10174d:	c7 45 e4 f2 16 10 00 	movl   $0x1016f2,-0x1c(%ebp)
  101754:	8b 45 08             	mov    0x8(%ebp),%eax
  101757:	8b 40 04             	mov    0x4(%eax),%eax
  10175a:	8b 55 08             	mov    0x8(%ebp),%edx
  10175d:	8b 52 08             	mov    0x8(%edx),%edx
  101760:	8b 4d 08             	mov    0x8(%ebp),%ecx
  101763:	8b 49 18             	mov    0x18(%ecx),%ecx
  101766:	8b 5d 08             	mov    0x8(%ebp),%ebx
  101769:	8b 5b 1c             	mov    0x1c(%ebx),%ebx
  10176c:	8b 75 08             	mov    0x8(%ebp),%esi
  10176f:	8b 76 14             	mov    0x14(%esi),%esi
  101772:	8b 7d e4             	mov    -0x1c(%ebp),%edi
  101775:	50                   	push   %eax
  101776:	52                   	push   %edx
  101777:	51                   	push   %ecx
  101778:	53                   	push   %ebx
  101779:	56                   	push   %esi
  10177a:	ff d7                	call   *%edi
  10177c:	5b                   	pop    %ebx
  10177d:	5b                   	pop    %ebx
  10177e:	5b                   	pop    %ebx
  10177f:	5b                   	pop    %ebx
  101780:	5b                   	pop    %ebx
  101781:	89 45 e0             	mov    %eax,-0x20(%ebp)
  101784:	8b 55 e0             	mov    -0x20(%ebp),%edx
  101787:	8b 45 08             	mov    0x8(%ebp),%eax
  10178a:	89 50 20             	mov    %edx,0x20(%eax)
  10178d:	8d 65 f4             	lea    -0xc(%ebp),%esp
  101790:	5b                   	pop    %ebx
  101791:	5e                   	pop    %esi
  101792:	5f                   	pop    %edi
  101793:	5d                   	pop    %ebp
  101794:	c3                   	ret

00101795 <timer_callback>:
  101795:	55                   	push   %ebp
  101796:	89 e5                	mov    %esp,%ebp
  101798:	83 ec 18             	sub    $0x18,%esp
  10179b:	a1 24 6e 10 00       	mov    0x106e24,%eax
  1017a0:	6b c0 4c             	imul   $0x4c,%eax,%eax
  1017a3:	05 40 6e 10 00       	add    $0x106e40,%eax
  1017a8:	89 45 f4             	mov    %eax,-0xc(%ebp)
  1017ab:	8b 45 f4             	mov    -0xc(%ebp),%eax
  1017ae:	8b 40 34             	mov    0x34(%eax),%eax
  1017b1:	8d 50 01             	lea    0x1(%eax),%edx
  1017b4:	8b 45 f4             	mov    -0xc(%ebp),%eax
  1017b7:	89 50 34             	mov    %edx,0x34(%eax)
  1017ba:	8b 45 f4             	mov    -0xc(%ebp),%eax
  1017bd:	8b 40 34             	mov    0x34(%eax),%eax
  1017c0:	83 f8 0a             	cmp    $0xa,%eax
  1017c3:	76 05                	jbe    1017ca <timer_callback+0x35>
  1017c5:	e8 bb 14 00 00       	call   102c85 <do_context_switch>
  1017ca:	a1 e0 6d 10 00       	mov    0x106de0,%eax
  1017cf:	83 c0 01             	add    $0x1,%eax
  1017d2:	a3 e0 6d 10 00       	mov    %eax,0x106de0
  1017d7:	90                   	nop
  1017d8:	c9                   	leave
  1017d9:	c3                   	ret

001017da <init_timer>:
  1017da:	55                   	push   %ebp
  1017db:	89 e5                	mov    %esp,%ebp
  1017dd:	83 ec 18             	sub    $0x18,%esp
  1017e0:	83 ec 08             	sub    $0x8,%esp
  1017e3:	68 95 17 10 00       	push   $0x101795
  1017e8:	6a 20                	push   $0x20
  1017ea:	e8 b4 fd ff ff       	call   1015a3 <register_interrupt_handler>
  1017ef:	83 c4 10             	add    $0x10,%esp
  1017f2:	c7 45 f4 ff ff 00 00 	movl   $0xffff,-0xc(%ebp)
  1017f9:	8b 45 f4             	mov    -0xc(%ebp),%eax
  1017fc:	88 45 f3             	mov    %al,-0xd(%ebp)
  1017ff:	8b 45 f4             	mov    -0xc(%ebp),%eax
  101802:	c1 e8 08             	shr    $0x8,%eax
  101805:	88 45 f2             	mov    %al,-0xe(%ebp)
  101808:	83 ec 08             	sub    $0x8,%esp
  10180b:	6a 36                	push   $0x36
  10180d:	6a 43                	push   $0x43
  10180f:	e8 61 fe ff ff       	call   101675 <port_byte_out>
  101814:	83 c4 10             	add    $0x10,%esp
  101817:	0f b6 45 f3          	movzbl -0xd(%ebp),%eax
  10181b:	83 ec 08             	sub    $0x8,%esp
  10181e:	50                   	push   %eax
  10181f:	6a 40                	push   $0x40
  101821:	e8 4f fe ff ff       	call   101675 <port_byte_out>
  101826:	83 c4 10             	add    $0x10,%esp
  101829:	0f b6 45 f2          	movzbl -0xe(%ebp),%eax
  10182d:	83 ec 08             	sub    $0x8,%esp
  101830:	50                   	push   %eax
  101831:	6a 40                	push   $0x40
  101833:	e8 3d fe ff ff       	call   101675 <port_byte_out>
  101838:	83 c4 10             	add    $0x10,%esp
  10183b:	90                   	nop
  10183c:	c9                   	leave
  10183d:	c3                   	ret

0010183e <kmalloc>:
  10183e:	55                   	push   %ebp
  10183f:	89 e5                	mov    %esp,%ebp
  101841:	83 ec 08             	sub    $0x8,%esp
  101844:	83 ec 08             	sub    $0x8,%esp
  101847:	6a 00                	push   $0x0
  101849:	ff 75 08             	push   0x8(%ebp)
  10184c:	e8 bf 0f 00 00       	call   102810 <dynamic_heap_alloc>
  101851:	83 c4 10             	add    $0x10,%esp
  101854:	90                   	nop
  101855:	c9                   	leave
  101856:	c3                   	ret

00101857 <kmalloc_a>:
  101857:	55                   	push   %ebp
  101858:	89 e5                	mov    %esp,%ebp
  10185a:	83 ec 08             	sub    $0x8,%esp
  10185d:	83 ec 08             	sub    $0x8,%esp
  101860:	6a 01                	push   $0x1
  101862:	ff 75 08             	push   0x8(%ebp)
  101865:	e8 a6 0f 00 00       	call   102810 <dynamic_heap_alloc>
  10186a:	83 c4 10             	add    $0x10,%esp
  10186d:	c9                   	leave
  10186e:	c3                   	ret

0010186f <kmalloc_ap>:
  10186f:	55                   	push   %ebp
  101870:	89 e5                	mov    %esp,%ebp
  101872:	83 ec 08             	sub    $0x8,%esp
  101875:	83 ec 08             	sub    $0x8,%esp
  101878:	6a 01                	push   $0x1
  10187a:	ff 75 08             	push   0x8(%ebp)
  10187d:	e8 8e 0f 00 00       	call   102810 <dynamic_heap_alloc>
  101882:	83 c4 10             	add    $0x10,%esp
  101885:	c9                   	leave
  101886:	c3                   	ret

00101887 <kfree>:
  101887:	55                   	push   %ebp
  101888:	89 e5                	mov    %esp,%ebp
  10188a:	83 ec 08             	sub    $0x8,%esp
  10188d:	83 ec 0c             	sub    $0xc,%esp
  101890:	ff 75 08             	push   0x8(%ebp)
  101893:	e8 b0 0f 00 00       	call   102848 <dynamic_heap_free>
  101898:	83 c4 10             	add    $0x10,%esp
  10189b:	90                   	nop
  10189c:	c9                   	leave
  10189d:	c3                   	ret

0010189e <kmemcpy>:
  10189e:	55                   	push   %ebp
  10189f:	89 e5                	mov    %esp,%ebp
  1018a1:	83 ec 10             	sub    $0x10,%esp
  1018a4:	c7 45 fc 00 00 00 00 	movl   $0x0,-0x4(%ebp)
  1018ab:	eb 19                	jmp    1018c6 <kmemcpy+0x28>
  1018ad:	8b 55 fc             	mov    -0x4(%ebp),%edx
  1018b0:	8b 45 0c             	mov    0xc(%ebp),%eax
  1018b3:	01 d0                	add    %edx,%eax
  1018b5:	8b 4d fc             	mov    -0x4(%ebp),%ecx
  1018b8:	8b 55 08             	mov    0x8(%ebp),%edx
  1018bb:	01 ca                	add    %ecx,%edx
  1018bd:	0f b6 00             	movzbl (%eax),%eax
  1018c0:	88 02                	mov    %al,(%edx)
  1018c2:	83 45 fc 01          	addl   $0x1,-0x4(%ebp)
  1018c6:	8b 45 fc             	mov    -0x4(%ebp),%eax
  1018c9:	3b 45 10             	cmp    0x10(%ebp),%eax
  1018cc:	72 df                	jb     1018ad <kmemcpy+0xf>
  1018ce:	90                   	nop
  1018cf:	90                   	nop
  1018d0:	c9                   	leave
  1018d1:	c3                   	ret

001018d2 <kmemset>:
  1018d2:	55                   	push   %ebp
  1018d3:	89 e5                	mov    %esp,%ebp
  1018d5:	83 ec 14             	sub    $0x14,%esp
  1018d8:	8b 45 0c             	mov    0xc(%ebp),%eax
  1018db:	88 45 ec             	mov    %al,-0x14(%ebp)
  1018de:	8b 45 08             	mov    0x8(%ebp),%eax
  1018e1:	89 45 fc             	mov    %eax,-0x4(%ebp)
  1018e4:	eb 13                	jmp    1018f9 <kmemset+0x27>
  1018e6:	8b 45 fc             	mov    -0x4(%ebp),%eax
  1018e9:	8d 50 01             	lea    0x1(%eax),%edx
  1018ec:	89 55 fc             	mov    %edx,-0x4(%ebp)
  1018ef:	0f b6 55 ec          	movzbl -0x14(%ebp),%edx
  1018f3:	88 10                	mov    %dl,(%eax)
  1018f5:	83 6d 10 01          	subl   $0x1,0x10(%ebp)
  1018f9:	83 7d 10 00          	cmpl   $0x0,0x10(%ebp)
  1018fd:	75 e7                	jne    1018e6 <kmemset+0x14>
  1018ff:	90                   	nop
  101900:	90                   	nop
  101901:	c9                   	leave
  101902:	c3                   	ret

00101903 <standard_lessthan_predicate>:
  101903:	55                   	push   %ebp
  101904:	89 e5                	mov    %esp,%ebp
  101906:	8b 45 08             	mov    0x8(%ebp),%eax
  101909:	3b 45 0c             	cmp    0xc(%ebp),%eax
  10190c:	0f 92 c0             	setb   %al
  10190f:	5d                   	pop    %ebp
  101910:	c3                   	ret

00101911 <create_ordered_array>:
  101911:	55                   	push   %ebp
  101912:	89 e5                	mov    %esp,%ebp
  101914:	83 ec 18             	sub    $0x18,%esp
  101917:	8b 45 0c             	mov    0xc(%ebp),%eax
  10191a:	c1 e0 02             	shl    $0x2,%eax
  10191d:	83 ec 0c             	sub    $0xc,%esp
  101920:	50                   	push   %eax
  101921:	e8 86 10 00 00       	call   1029ac <kmalloc_nofree>
  101926:	83 c4 10             	add    $0x10,%esp
  101929:	89 45 f4             	mov    %eax,-0xc(%ebp)
  10192c:	8b 55 f4             	mov    -0xc(%ebp),%edx
  10192f:	8b 45 08             	mov    0x8(%ebp),%eax
  101932:	ff 75 10             	push   0x10(%ebp)
  101935:	ff 75 0c             	push   0xc(%ebp)
  101938:	52                   	push   %edx
  101939:	50                   	push   %eax
  10193a:	e8 0a 00 00 00       	call   101949 <place_ordered_array>
  10193f:	83 c4 0c             	add    $0xc,%esp
  101942:	8b 45 08             	mov    0x8(%ebp),%eax
  101945:	c9                   	leave
  101946:	c2 04 00             	ret    $0x4

00101949 <place_ordered_array>:
  101949:	55                   	push   %ebp
  10194a:	89 e5                	mov    %esp,%ebp
  10194c:	83 ec 18             	sub    $0x18,%esp
  10194f:	8b 45 0c             	mov    0xc(%ebp),%eax
  101952:	89 45 e8             	mov    %eax,-0x18(%ebp)
  101955:	8b 45 10             	mov    0x10(%ebp),%eax
  101958:	8d 14 85 00 00 00 00 	lea    0x0(,%eax,4),%edx
  10195f:	8b 45 e8             	mov    -0x18(%ebp),%eax
  101962:	83 ec 04             	sub    $0x4,%esp
  101965:	52                   	push   %edx
  101966:	6a 00                	push   $0x0
  101968:	50                   	push   %eax
  101969:	e8 64 ff ff ff       	call   1018d2 <kmemset>
  10196e:	83 c4 10             	add    $0x10,%esp
  101971:	c7 45 ec 00 00 00 00 	movl   $0x0,-0x14(%ebp)
  101978:	8b 45 10             	mov    0x10(%ebp),%eax
  10197b:	89 45 f0             	mov    %eax,-0x10(%ebp)
  10197e:	8b 45 14             	mov    0x14(%ebp),%eax
  101981:	89 45 f4             	mov    %eax,-0xc(%ebp)
  101984:	8b 45 08             	mov    0x8(%ebp),%eax
  101987:	8b 55 e8             	mov    -0x18(%ebp),%edx
  10198a:	89 10                	mov    %edx,(%eax)
  10198c:	8b 55 ec             	mov    -0x14(%ebp),%edx
  10198f:	89 50 04             	mov    %edx,0x4(%eax)
  101992:	8b 55 f0             	mov    -0x10(%ebp),%edx
  101995:	89 50 08             	mov    %edx,0x8(%eax)
  101998:	8b 55 f4             	mov    -0xc(%ebp),%edx
  10199b:	89 50 0c             	mov    %edx,0xc(%eax)
  10199e:	8b 45 08             	mov    0x8(%ebp),%eax
  1019a1:	c9                   	leave
  1019a2:	c2 04 00             	ret    $0x4

001019a5 <destroy_ordered_array>:
  1019a5:	55                   	push   %ebp
  1019a6:	89 e5                	mov    %esp,%ebp
  1019a8:	90                   	nop
  1019a9:	5d                   	pop    %ebp
  1019aa:	c3                   	ret

001019ab <insert_ordered_array>:
  1019ab:	55                   	push   %ebp
  1019ac:	89 e5                	mov    %esp,%ebp
  1019ae:	53                   	push   %ebx
  1019af:	83 ec 14             	sub    $0x14,%esp
  1019b2:	8b 45 0c             	mov    0xc(%ebp),%eax
  1019b5:	8b 50 04             	mov    0x4(%eax),%edx
  1019b8:	8b 45 0c             	mov    0xc(%ebp),%eax
  1019bb:	8b 40 08             	mov    0x8(%eax),%eax
  1019be:	39 c2                	cmp    %eax,%edx
  1019c0:	75 15                	jne    1019d7 <insert_ordered_array+0x2c>
  1019c2:	83 ec 0c             	sub    $0xc,%esp
  1019c5:	68 3f 54 10 00       	push   $0x10543f
  1019ca:	e8 76 f2 ff ff       	call   100c45 <kprintf>
  1019cf:	83 c4 10             	add    $0x10,%esp
  1019d2:	e9 d7 00 00 00       	jmp    101aae <insert_ordered_array+0x103>
  1019d7:	c7 45 f4 00 00 00 00 	movl   $0x0,-0xc(%ebp)
  1019de:	eb 04                	jmp    1019e4 <insert_ordered_array+0x39>
  1019e0:	83 45 f4 01          	addl   $0x1,-0xc(%ebp)
  1019e4:	8b 45 0c             	mov    0xc(%ebp),%eax
  1019e7:	8b 40 04             	mov    0x4(%eax),%eax
  1019ea:	39 45 f4             	cmp    %eax,-0xc(%ebp)
  1019ed:	73 25                	jae    101a14 <insert_ordered_array+0x69>
  1019ef:	8b 45 0c             	mov    0xc(%ebp),%eax
  1019f2:	8b 40 0c             	mov    0xc(%eax),%eax
  1019f5:	8b 55 0c             	mov    0xc(%ebp),%edx
  1019f8:	8b 12                	mov    (%edx),%edx
  1019fa:	8b 4d f4             	mov    -0xc(%ebp),%ecx
  1019fd:	c1 e1 02             	shl    $0x2,%ecx
  101a00:	01 ca                	add    %ecx,%edx
  101a02:	8b 12                	mov    (%edx),%edx
  101a04:	83 ec 08             	sub    $0x8,%esp
  101a07:	ff 75 08             	push   0x8(%ebp)
  101a0a:	52                   	push   %edx
  101a0b:	ff d0                	call   *%eax
  101a0d:	83 c4 10             	add    $0x10,%esp
  101a10:	84 c0                	test   %al,%al
  101a12:	75 cc                	jne    1019e0 <insert_ordered_array+0x35>
  101a14:	8b 45 0c             	mov    0xc(%ebp),%eax
  101a17:	8b 40 04             	mov    0x4(%eax),%eax
  101a1a:	39 45 f4             	cmp    %eax,-0xc(%ebp)
  101a1d:	75 21                	jne    101a40 <insert_ordered_array+0x95>
  101a1f:	8b 45 0c             	mov    0xc(%ebp),%eax
  101a22:	8b 18                	mov    (%eax),%ebx
  101a24:	8b 45 0c             	mov    0xc(%ebp),%eax
  101a27:	8b 40 04             	mov    0x4(%eax),%eax
  101a2a:	8d 48 01             	lea    0x1(%eax),%ecx
  101a2d:	8b 55 0c             	mov    0xc(%ebp),%edx
  101a30:	89 4a 04             	mov    %ecx,0x4(%edx)
  101a33:	c1 e0 02             	shl    $0x2,%eax
  101a36:	8d 14 03             	lea    (%ebx,%eax,1),%edx
  101a39:	8b 45 08             	mov    0x8(%ebp),%eax
  101a3c:	89 02                	mov    %eax,(%edx)
  101a3e:	eb 6e                	jmp    101aae <insert_ordered_array+0x103>
  101a40:	8b 45 0c             	mov    0xc(%ebp),%eax
  101a43:	8b 00                	mov    (%eax),%eax
  101a45:	8b 55 f4             	mov    -0xc(%ebp),%edx
  101a48:	c1 e2 02             	shl    $0x2,%edx
  101a4b:	01 d0                	add    %edx,%eax
  101a4d:	8b 00                	mov    (%eax),%eax
  101a4f:	89 45 f0             	mov    %eax,-0x10(%ebp)
  101a52:	8b 45 0c             	mov    0xc(%ebp),%eax
  101a55:	8b 00                	mov    (%eax),%eax
  101a57:	8b 55 f4             	mov    -0xc(%ebp),%edx
  101a5a:	c1 e2 02             	shl    $0x2,%edx
  101a5d:	01 c2                	add    %eax,%edx
  101a5f:	8b 45 08             	mov    0x8(%ebp),%eax
  101a62:	89 02                	mov    %eax,(%edx)
  101a64:	eb 2e                	jmp    101a94 <insert_ordered_array+0xe9>
  101a66:	83 45 f4 01          	addl   $0x1,-0xc(%ebp)
  101a6a:	8b 45 0c             	mov    0xc(%ebp),%eax
  101a6d:	8b 00                	mov    (%eax),%eax
  101a6f:	8b 55 f4             	mov    -0xc(%ebp),%edx
  101a72:	c1 e2 02             	shl    $0x2,%edx
  101a75:	01 d0                	add    %edx,%eax
  101a77:	8b 00                	mov    (%eax),%eax
  101a79:	89 45 ec             	mov    %eax,-0x14(%ebp)
  101a7c:	8b 45 0c             	mov    0xc(%ebp),%eax
  101a7f:	8b 00                	mov    (%eax),%eax
  101a81:	8b 55 f4             	mov    -0xc(%ebp),%edx
  101a84:	c1 e2 02             	shl    $0x2,%edx
  101a87:	01 c2                	add    %eax,%edx
  101a89:	8b 45 f0             	mov    -0x10(%ebp),%eax
  101a8c:	89 02                	mov    %eax,(%edx)
  101a8e:	8b 45 ec             	mov    -0x14(%ebp),%eax
  101a91:	89 45 f0             	mov    %eax,-0x10(%ebp)
  101a94:	8b 45 0c             	mov    0xc(%ebp),%eax
  101a97:	8b 40 04             	mov    0x4(%eax),%eax
  101a9a:	39 45 f4             	cmp    %eax,-0xc(%ebp)
  101a9d:	72 c7                	jb     101a66 <insert_ordered_array+0xbb>
  101a9f:	8b 45 0c             	mov    0xc(%ebp),%eax
  101aa2:	8b 40 04             	mov    0x4(%eax),%eax
  101aa5:	8d 50 01             	lea    0x1(%eax),%edx
  101aa8:	8b 45 0c             	mov    0xc(%ebp),%eax
  101aab:	89 50 04             	mov    %edx,0x4(%eax)
  101aae:	8b 5d fc             	mov    -0x4(%ebp),%ebx
  101ab1:	c9                   	leave
  101ab2:	c3                   	ret

00101ab3 <lookup_ordered_array>:
  101ab3:	55                   	push   %ebp
  101ab4:	89 e5                	mov    %esp,%ebp
  101ab6:	8b 45 0c             	mov    0xc(%ebp),%eax
  101ab9:	8b 00                	mov    (%eax),%eax
  101abb:	8b 55 08             	mov    0x8(%ebp),%edx
  101abe:	c1 e2 02             	shl    $0x2,%edx
  101ac1:	01 d0                	add    %edx,%eax
  101ac3:	8b 00                	mov    (%eax),%eax
  101ac5:	5d                   	pop    %ebp
  101ac6:	c3                   	ret

00101ac7 <remove_ordered_array>:
  101ac7:	55                   	push   %ebp
  101ac8:	89 e5                	mov    %esp,%ebp
  101aca:	eb 26                	jmp    101af2 <remove_ordered_array+0x2b>
  101acc:	8b 45 0c             	mov    0xc(%ebp),%eax
  101acf:	8b 00                	mov    (%eax),%eax
  101ad1:	8b 55 08             	mov    0x8(%ebp),%edx
  101ad4:	83 c2 01             	add    $0x1,%edx
  101ad7:	c1 e2 02             	shl    $0x2,%edx
  101ada:	8d 0c 10             	lea    (%eax,%edx,1),%ecx
  101add:	8b 45 0c             	mov    0xc(%ebp),%eax
  101ae0:	8b 00                	mov    (%eax),%eax
  101ae2:	8b 55 08             	mov    0x8(%ebp),%edx
  101ae5:	c1 e2 02             	shl    $0x2,%edx
  101ae8:	01 c2                	add    %eax,%edx
  101aea:	8b 01                	mov    (%ecx),%eax
  101aec:	89 02                	mov    %eax,(%edx)
  101aee:	83 45 08 01          	addl   $0x1,0x8(%ebp)
  101af2:	8b 45 0c             	mov    0xc(%ebp),%eax
  101af5:	8b 40 04             	mov    0x4(%eax),%eax
  101af8:	39 45 08             	cmp    %eax,0x8(%ebp)
  101afb:	72 cf                	jb     101acc <remove_ordered_array+0x5>
  101afd:	8b 45 0c             	mov    0xc(%ebp),%eax
  101b00:	8b 40 04             	mov    0x4(%eax),%eax
  101b03:	8d 50 ff             	lea    -0x1(%eax),%edx
  101b06:	8b 45 0c             	mov    0xc(%ebp),%eax
  101b09:	89 50 04             	mov    %edx,0x4(%eax)
  101b0c:	90                   	nop
  101b0d:	5d                   	pop    %ebp
  101b0e:	c3                   	ret

00101b0f <int_to_ascii>:
  101b0f:	55                   	push   %ebp
  101b10:	89 e5                	mov    %esp,%ebp
  101b12:	83 ec 18             	sub    $0x18,%esp
  101b15:	8b 45 08             	mov    0x8(%ebp),%eax
  101b18:	89 45 f0             	mov    %eax,-0x10(%ebp)
  101b1b:	83 7d f0 00          	cmpl   $0x0,-0x10(%ebp)
  101b1f:	79 03                	jns    101b24 <int_to_ascii+0x15>
  101b21:	f7 5d 08             	negl   0x8(%ebp)
  101b24:	c7 45 f4 00 00 00 00 	movl   $0x0,-0xc(%ebp)
  101b2b:	8b 4d 08             	mov    0x8(%ebp),%ecx
  101b2e:	ba 67 66 66 66       	mov    $0x66666667,%edx
  101b33:	89 c8                	mov    %ecx,%eax
  101b35:	f7 ea                	imul   %edx
  101b37:	c1 fa 02             	sar    $0x2,%edx
  101b3a:	89 c8                	mov    %ecx,%eax
  101b3c:	c1 f8 1f             	sar    $0x1f,%eax
  101b3f:	29 c2                	sub    %eax,%edx
  101b41:	89 d0                	mov    %edx,%eax
  101b43:	c1 e0 02             	shl    $0x2,%eax
  101b46:	01 d0                	add    %edx,%eax
  101b48:	01 c0                	add    %eax,%eax
  101b4a:	29 c1                	sub    %eax,%ecx
  101b4c:	89 ca                	mov    %ecx,%edx
  101b4e:	89 d0                	mov    %edx,%eax
  101b50:	8d 48 30             	lea    0x30(%eax),%ecx
  101b53:	8b 45 f4             	mov    -0xc(%ebp),%eax
  101b56:	8d 50 01             	lea    0x1(%eax),%edx
  101b59:	89 55 f4             	mov    %edx,-0xc(%ebp)
  101b5c:	89 c2                	mov    %eax,%edx
  101b5e:	8b 45 0c             	mov    0xc(%ebp),%eax
  101b61:	01 d0                	add    %edx,%eax
  101b63:	89 ca                	mov    %ecx,%edx
  101b65:	88 10                	mov    %dl,(%eax)
  101b67:	8b 4d 08             	mov    0x8(%ebp),%ecx
  101b6a:	ba 67 66 66 66       	mov    $0x66666667,%edx
  101b6f:	89 c8                	mov    %ecx,%eax
  101b71:	f7 ea                	imul   %edx
  101b73:	89 d0                	mov    %edx,%eax
  101b75:	c1 f8 02             	sar    $0x2,%eax
  101b78:	c1 f9 1f             	sar    $0x1f,%ecx
  101b7b:	89 ca                	mov    %ecx,%edx
  101b7d:	29 d0                	sub    %edx,%eax
  101b7f:	89 45 08             	mov    %eax,0x8(%ebp)
  101b82:	83 7d 08 00          	cmpl   $0x0,0x8(%ebp)
  101b86:	7f a3                	jg     101b2b <int_to_ascii+0x1c>
  101b88:	83 7d f0 00          	cmpl   $0x0,-0x10(%ebp)
  101b8c:	79 13                	jns    101ba1 <int_to_ascii+0x92>
  101b8e:	8b 45 f4             	mov    -0xc(%ebp),%eax
  101b91:	8d 50 01             	lea    0x1(%eax),%edx
  101b94:	89 55 f4             	mov    %edx,-0xc(%ebp)
  101b97:	89 c2                	mov    %eax,%edx
  101b99:	8b 45 0c             	mov    0xc(%ebp),%eax
  101b9c:	01 d0                	add    %edx,%eax
  101b9e:	c6 00 2d             	movb   $0x2d,(%eax)
  101ba1:	8b 55 f4             	mov    -0xc(%ebp),%edx
  101ba4:	8b 45 0c             	mov    0xc(%ebp),%eax
  101ba7:	01 d0                	add    %edx,%eax
  101ba9:	c6 00 00             	movb   $0x0,(%eax)
  101bac:	83 ec 0c             	sub    $0xc,%esp
  101baf:	ff 75 0c             	push   0xc(%ebp)
  101bb2:	e8 e4 00 00 00       	call   101c9b <reverse>
  101bb7:	83 c4 10             	add    $0x10,%esp
  101bba:	90                   	nop
  101bbb:	c9                   	leave
  101bbc:	c3                   	ret

00101bbd <hex_to_ascii>:
  101bbd:	55                   	push   %ebp
  101bbe:	89 e5                	mov    %esp,%ebp
  101bc0:	83 ec 18             	sub    $0x18,%esp
  101bc3:	83 ec 08             	sub    $0x8,%esp
  101bc6:	6a 30                	push   $0x30
  101bc8:	ff 75 0c             	push   0xc(%ebp)
  101bcb:	e8 5c 01 00 00       	call   101d2c <append>
  101bd0:	83 c4 10             	add    $0x10,%esp
  101bd3:	83 ec 08             	sub    $0x8,%esp
  101bd6:	6a 78                	push   $0x78
  101bd8:	ff 75 0c             	push   0xc(%ebp)
  101bdb:	e8 4c 01 00 00       	call   101d2c <append>
  101be0:	83 c4 10             	add    $0x10,%esp
  101be3:	c6 45 f7 00          	movb   $0x0,-0x9(%ebp)
  101be7:	c7 45 f0 1c 00 00 00 	movl   $0x1c,-0x10(%ebp)
  101bee:	eb 61                	jmp    101c51 <hex_to_ascii+0x94>
  101bf0:	8b 45 f0             	mov    -0x10(%ebp),%eax
  101bf3:	8b 55 08             	mov    0x8(%ebp),%edx
  101bf6:	89 c1                	mov    %eax,%ecx
  101bf8:	d3 fa                	sar    %cl,%edx
  101bfa:	89 d0                	mov    %edx,%eax
  101bfc:	83 e0 0f             	and    $0xf,%eax
  101bff:	89 45 ec             	mov    %eax,-0x14(%ebp)
  101c02:	83 7d ec 00          	cmpl   $0x0,-0x14(%ebp)
  101c06:	75 06                	jne    101c0e <hex_to_ascii+0x51>
  101c08:	80 7d f7 00          	cmpb   $0x0,-0x9(%ebp)
  101c0c:	74 3e                	je     101c4c <hex_to_ascii+0x8f>
  101c0e:	c6 45 f7 01          	movb   $0x1,-0x9(%ebp)
  101c12:	83 7d ec 0a          	cmpl   $0xa,-0x14(%ebp)
  101c16:	7e 1a                	jle    101c32 <hex_to_ascii+0x75>
  101c18:	8b 45 ec             	mov    -0x14(%ebp),%eax
  101c1b:	83 c0 57             	add    $0x57,%eax
  101c1e:	0f be c0             	movsbl %al,%eax
  101c21:	83 ec 08             	sub    $0x8,%esp
  101c24:	50                   	push   %eax
  101c25:	ff 75 0c             	push   0xc(%ebp)
  101c28:	e8 ff 00 00 00       	call   101d2c <append>
  101c2d:	83 c4 10             	add    $0x10,%esp
  101c30:	eb 1b                	jmp    101c4d <hex_to_ascii+0x90>
  101c32:	8b 45 ec             	mov    -0x14(%ebp),%eax
  101c35:	83 c0 30             	add    $0x30,%eax
  101c38:	0f be c0             	movsbl %al,%eax
  101c3b:	83 ec 08             	sub    $0x8,%esp
  101c3e:	50                   	push   %eax
  101c3f:	ff 75 0c             	push   0xc(%ebp)
  101c42:	e8 e5 00 00 00       	call   101d2c <append>
  101c47:	83 c4 10             	add    $0x10,%esp
  101c4a:	eb 01                	jmp    101c4d <hex_to_ascii+0x90>
  101c4c:	90                   	nop
  101c4d:	83 6d f0 04          	subl   $0x4,-0x10(%ebp)
  101c51:	83 7d f0 00          	cmpl   $0x0,-0x10(%ebp)
  101c55:	7f 99                	jg     101bf0 <hex_to_ascii+0x33>
  101c57:	8b 45 08             	mov    0x8(%ebp),%eax
  101c5a:	83 e0 0f             	and    $0xf,%eax
  101c5d:	89 45 ec             	mov    %eax,-0x14(%ebp)
  101c60:	83 7d ec 09          	cmpl   $0x9,-0x14(%ebp)
  101c64:	7e 1a                	jle    101c80 <hex_to_ascii+0xc3>
  101c66:	8b 45 ec             	mov    -0x14(%ebp),%eax
  101c69:	83 c0 57             	add    $0x57,%eax
  101c6c:	0f be c0             	movsbl %al,%eax
  101c6f:	83 ec 08             	sub    $0x8,%esp
  101c72:	50                   	push   %eax
  101c73:	ff 75 0c             	push   0xc(%ebp)
  101c76:	e8 b1 00 00 00       	call   101d2c <append>
  101c7b:	83 c4 10             	add    $0x10,%esp
  101c7e:	eb 18                	jmp    101c98 <hex_to_ascii+0xdb>
  101c80:	8b 45 ec             	mov    -0x14(%ebp),%eax
  101c83:	83 c0 30             	add    $0x30,%eax
  101c86:	0f be c0             	movsbl %al,%eax
  101c89:	83 ec 08             	sub    $0x8,%esp
  101c8c:	50                   	push   %eax
  101c8d:	ff 75 0c             	push   0xc(%ebp)
  101c90:	e8 97 00 00 00       	call   101d2c <append>
  101c95:	83 c4 10             	add    $0x10,%esp
  101c98:	90                   	nop
  101c99:	c9                   	leave
  101c9a:	c3                   	ret

00101c9b <reverse>:
  101c9b:	55                   	push   %ebp
  101c9c:	89 e5                	mov    %esp,%ebp
  101c9e:	83 ec 18             	sub    $0x18,%esp
  101ca1:	c7 45 f4 00 00 00 00 	movl   $0x0,-0xc(%ebp)
  101ca8:	83 ec 0c             	sub    $0xc,%esp
  101cab:	ff 75 08             	push   0x8(%ebp)
  101cae:	e8 52 00 00 00       	call   101d05 <strlen>
  101cb3:	83 c4 10             	add    $0x10,%esp
  101cb6:	83 e8 01             	sub    $0x1,%eax
  101cb9:	89 45 f0             	mov    %eax,-0x10(%ebp)
  101cbc:	eb 3b                	jmp    101cf9 <reverse+0x5e>
  101cbe:	8b 55 f4             	mov    -0xc(%ebp),%edx
  101cc1:	8b 45 08             	mov    0x8(%ebp),%eax
  101cc4:	01 d0                	add    %edx,%eax
  101cc6:	0f b6 00             	movzbl (%eax),%eax
  101cc9:	0f be c0             	movsbl %al,%eax
  101ccc:	89 45 ec             	mov    %eax,-0x14(%ebp)
  101ccf:	8b 55 f0             	mov    -0x10(%ebp),%edx
  101cd2:	8b 45 08             	mov    0x8(%ebp),%eax
  101cd5:	01 d0                	add    %edx,%eax
  101cd7:	8b 4d f4             	mov    -0xc(%ebp),%ecx
  101cda:	8b 55 08             	mov    0x8(%ebp),%edx
  101cdd:	01 ca                	add    %ecx,%edx
  101cdf:	0f b6 00             	movzbl (%eax),%eax
  101ce2:	88 02                	mov    %al,(%edx)
  101ce4:	8b 55 f0             	mov    -0x10(%ebp),%edx
  101ce7:	8b 45 08             	mov    0x8(%ebp),%eax
  101cea:	01 d0                	add    %edx,%eax
  101cec:	8b 55 ec             	mov    -0x14(%ebp),%edx
  101cef:	88 10                	mov    %dl,(%eax)
  101cf1:	83 45 f4 01          	addl   $0x1,-0xc(%ebp)
  101cf5:	83 6d f0 01          	subl   $0x1,-0x10(%ebp)
  101cf9:	8b 45 f4             	mov    -0xc(%ebp),%eax
  101cfc:	3b 45 f0             	cmp    -0x10(%ebp),%eax
  101cff:	7c bd                	jl     101cbe <reverse+0x23>
  101d01:	90                   	nop
  101d02:	90                   	nop
  101d03:	c9                   	leave
  101d04:	c3                   	ret

00101d05 <strlen>:
  101d05:	55                   	push   %ebp
  101d06:	89 e5                	mov    %esp,%ebp
  101d08:	83 ec 10             	sub    $0x10,%esp
  101d0b:	c7 45 fc 00 00 00 00 	movl   $0x0,-0x4(%ebp)
  101d12:	eb 04                	jmp    101d18 <strlen+0x13>
  101d14:	83 45 fc 01          	addl   $0x1,-0x4(%ebp)
  101d18:	8b 55 fc             	mov    -0x4(%ebp),%edx
  101d1b:	8b 45 08             	mov    0x8(%ebp),%eax
  101d1e:	01 d0                	add    %edx,%eax
  101d20:	0f b6 00             	movzbl (%eax),%eax
  101d23:	84 c0                	test   %al,%al
  101d25:	75 ed                	jne    101d14 <strlen+0xf>
  101d27:	8b 45 fc             	mov    -0x4(%ebp),%eax
  101d2a:	c9                   	leave
  101d2b:	c3                   	ret

00101d2c <append>:
  101d2c:	55                   	push   %ebp
  101d2d:	89 e5                	mov    %esp,%ebp
  101d2f:	83 ec 14             	sub    $0x14,%esp
  101d32:	8b 45 0c             	mov    0xc(%ebp),%eax
  101d35:	88 45 ec             	mov    %al,-0x14(%ebp)
  101d38:	ff 75 08             	push   0x8(%ebp)
  101d3b:	e8 c5 ff ff ff       	call   101d05 <strlen>
  101d40:	83 c4 04             	add    $0x4,%esp
  101d43:	89 45 fc             	mov    %eax,-0x4(%ebp)
  101d46:	8b 55 fc             	mov    -0x4(%ebp),%edx
  101d49:	8b 45 08             	mov    0x8(%ebp),%eax
  101d4c:	01 c2                	add    %eax,%edx
  101d4e:	0f b6 45 ec          	movzbl -0x14(%ebp),%eax
  101d52:	88 02                	mov    %al,(%edx)
  101d54:	8b 45 fc             	mov    -0x4(%ebp),%eax
  101d57:	8d 50 01             	lea    0x1(%eax),%edx
  101d5a:	8b 45 08             	mov    0x8(%ebp),%eax
  101d5d:	01 d0                	add    %edx,%eax
  101d5f:	c6 00 00             	movb   $0x0,(%eax)
  101d62:	90                   	nop
  101d63:	c9                   	leave
  101d64:	c3                   	ret

00101d65 <backspace>:
  101d65:	55                   	push   %ebp
  101d66:	89 e5                	mov    %esp,%ebp
  101d68:	83 ec 10             	sub    $0x10,%esp
  101d6b:	ff 75 08             	push   0x8(%ebp)
  101d6e:	e8 92 ff ff ff       	call   101d05 <strlen>
  101d73:	83 c4 04             	add    $0x4,%esp
  101d76:	89 45 fc             	mov    %eax,-0x4(%ebp)
  101d79:	8b 45 fc             	mov    -0x4(%ebp),%eax
  101d7c:	8d 50 ff             	lea    -0x1(%eax),%edx
  101d7f:	8b 45 08             	mov    0x8(%ebp),%eax
  101d82:	01 d0                	add    %edx,%eax
  101d84:	c6 00 00             	movb   $0x0,(%eax)
  101d87:	90                   	nop
  101d88:	c9                   	leave
  101d89:	c3                   	ret

00101d8a <strcmp>:
  101d8a:	55                   	push   %ebp
  101d8b:	89 e5                	mov    %esp,%ebp
  101d8d:	83 ec 10             	sub    $0x10,%esp
  101d90:	c7 45 fc 00 00 00 00 	movl   $0x0,-0x4(%ebp)
  101d97:	eb 1a                	jmp    101db3 <strcmp+0x29>
  101d99:	8b 55 fc             	mov    -0x4(%ebp),%edx
  101d9c:	8b 45 08             	mov    0x8(%ebp),%eax
  101d9f:	01 d0                	add    %edx,%eax
  101da1:	0f b6 00             	movzbl (%eax),%eax
  101da4:	84 c0                	test   %al,%al
  101da6:	75 07                	jne    101daf <strcmp+0x25>
  101da8:	ba 00 00 00 00       	mov    $0x0,%edx
  101dad:	eb 3c                	jmp    101deb <strcmp+0x61>
  101daf:	83 45 fc 01          	addl   $0x1,-0x4(%ebp)
  101db3:	8b 55 fc             	mov    -0x4(%ebp),%edx
  101db6:	8b 45 08             	mov    0x8(%ebp),%eax
  101db9:	01 d0                	add    %edx,%eax
  101dbb:	0f b6 10             	movzbl (%eax),%edx
  101dbe:	8b 4d fc             	mov    -0x4(%ebp),%ecx
  101dc1:	8b 45 0c             	mov    0xc(%ebp),%eax
  101dc4:	01 c8                	add    %ecx,%eax
  101dc6:	0f b6 00             	movzbl (%eax),%eax
  101dc9:	38 c2                	cmp    %al,%dl
  101dcb:	74 cc                	je     101d99 <strcmp+0xf>
  101dcd:	8b 55 fc             	mov    -0x4(%ebp),%edx
  101dd0:	8b 45 08             	mov    0x8(%ebp),%eax
  101dd3:	01 d0                	add    %edx,%eax
  101dd5:	0f b6 00             	movzbl (%eax),%eax
  101dd8:	0f be d0             	movsbl %al,%edx
  101ddb:	8b 4d fc             	mov    -0x4(%ebp),%ecx
  101dde:	8b 45 0c             	mov    0xc(%ebp),%eax
  101de1:	01 c8                	add    %ecx,%eax
  101de3:	0f b6 00             	movzbl (%eax),%eax
  101de6:	0f be c0             	movsbl %al,%eax
  101de9:	29 c2                	sub    %eax,%edx
  101deb:	89 d0                	mov    %edx,%eax
  101ded:	c9                   	leave
  101dee:	c3                   	ret

00101def <set_frame>:
  101def:	55                   	push   %ebp
  101df0:	89 e5                	mov    %esp,%ebp
  101df2:	53                   	push   %ebx
  101df3:	83 ec 10             	sub    $0x10,%esp
  101df6:	8b 45 08             	mov    0x8(%ebp),%eax
  101df9:	c1 e8 0c             	shr    $0xc,%eax
  101dfc:	89 45 f8             	mov    %eax,-0x8(%ebp)
  101dff:	8b 45 f8             	mov    -0x8(%ebp),%eax
  101e02:	c1 e8 05             	shr    $0x5,%eax
  101e05:	89 45 f4             	mov    %eax,-0xc(%ebp)
  101e08:	8b 45 f8             	mov    -0x8(%ebp),%eax
  101e0b:	83 e0 1f             	and    $0x1f,%eax
  101e0e:	89 45 f0             	mov    %eax,-0x10(%ebp)
  101e11:	a1 e4 6d 10 00       	mov    0x106de4,%eax
  101e16:	8b 55 f4             	mov    -0xc(%ebp),%edx
  101e19:	c1 e2 02             	shl    $0x2,%edx
  101e1c:	01 d0                	add    %edx,%eax
  101e1e:	8b 10                	mov    (%eax),%edx
  101e20:	8b 45 f0             	mov    -0x10(%ebp),%eax
  101e23:	bb 01 00 00 00       	mov    $0x1,%ebx
  101e28:	89 c1                	mov    %eax,%ecx
  101e2a:	d3 e3                	shl    %cl,%ebx
  101e2c:	89 d8                	mov    %ebx,%eax
  101e2e:	89 c3                	mov    %eax,%ebx
  101e30:	a1 e4 6d 10 00       	mov    0x106de4,%eax
  101e35:	8b 4d f4             	mov    -0xc(%ebp),%ecx
  101e38:	c1 e1 02             	shl    $0x2,%ecx
  101e3b:	01 c8                	add    %ecx,%eax
  101e3d:	09 da                	or     %ebx,%edx
  101e3f:	89 10                	mov    %edx,(%eax)
  101e41:	90                   	nop
  101e42:	8b 5d fc             	mov    -0x4(%ebp),%ebx
  101e45:	c9                   	leave
  101e46:	c3                   	ret

00101e47 <clear_frame>:
  101e47:	55                   	push   %ebp
  101e48:	89 e5                	mov    %esp,%ebp
  101e4a:	53                   	push   %ebx
  101e4b:	83 ec 10             	sub    $0x10,%esp
  101e4e:	8b 45 08             	mov    0x8(%ebp),%eax
  101e51:	c1 e8 0c             	shr    $0xc,%eax
  101e54:	89 45 f8             	mov    %eax,-0x8(%ebp)
  101e57:	8b 45 f8             	mov    -0x8(%ebp),%eax
  101e5a:	c1 e8 05             	shr    $0x5,%eax
  101e5d:	89 45 f4             	mov    %eax,-0xc(%ebp)
  101e60:	8b 45 f8             	mov    -0x8(%ebp),%eax
  101e63:	83 e0 1f             	and    $0x1f,%eax
  101e66:	89 45 f0             	mov    %eax,-0x10(%ebp)
  101e69:	a1 e4 6d 10 00       	mov    0x106de4,%eax
  101e6e:	8b 55 f4             	mov    -0xc(%ebp),%edx
  101e71:	c1 e2 02             	shl    $0x2,%edx
  101e74:	01 d0                	add    %edx,%eax
  101e76:	8b 10                	mov    (%eax),%edx
  101e78:	8b 45 f0             	mov    -0x10(%ebp),%eax
  101e7b:	bb 01 00 00 00       	mov    $0x1,%ebx
  101e80:	89 c1                	mov    %eax,%ecx
  101e82:	d3 e3                	shl    %cl,%ebx
  101e84:	89 d8                	mov    %ebx,%eax
  101e86:	f7 d0                	not    %eax
  101e88:	89 c3                	mov    %eax,%ebx
  101e8a:	a1 e4 6d 10 00       	mov    0x106de4,%eax
  101e8f:	8b 4d f4             	mov    -0xc(%ebp),%ecx
  101e92:	c1 e1 02             	shl    $0x2,%ecx
  101e95:	01 c8                	add    %ecx,%eax
  101e97:	21 da                	and    %ebx,%edx
  101e99:	89 10                	mov    %edx,(%eax)
  101e9b:	90                   	nop
  101e9c:	8b 5d fc             	mov    -0x4(%ebp),%ebx
  101e9f:	c9                   	leave
  101ea0:	c3                   	ret

00101ea1 <test_frame>:
  101ea1:	55                   	push   %ebp
  101ea2:	89 e5                	mov    %esp,%ebp
  101ea4:	53                   	push   %ebx
  101ea5:	83 ec 10             	sub    $0x10,%esp
  101ea8:	8b 45 08             	mov    0x8(%ebp),%eax
  101eab:	c1 e8 0c             	shr    $0xc,%eax
  101eae:	89 45 f8             	mov    %eax,-0x8(%ebp)
  101eb1:	8b 45 f8             	mov    -0x8(%ebp),%eax
  101eb4:	c1 e8 05             	shr    $0x5,%eax
  101eb7:	89 45 f4             	mov    %eax,-0xc(%ebp)
  101eba:	8b 45 f8             	mov    -0x8(%ebp),%eax
  101ebd:	83 e0 1f             	and    $0x1f,%eax
  101ec0:	89 45 f0             	mov    %eax,-0x10(%ebp)
  101ec3:	a1 e4 6d 10 00       	mov    0x106de4,%eax
  101ec8:	8b 55 f4             	mov    -0xc(%ebp),%edx
  101ecb:	c1 e2 02             	shl    $0x2,%edx
  101ece:	01 d0                	add    %edx,%eax
  101ed0:	8b 10                	mov    (%eax),%edx
  101ed2:	8b 45 f0             	mov    -0x10(%ebp),%eax
  101ed5:	bb 01 00 00 00       	mov    $0x1,%ebx
  101eda:	89 c1                	mov    %eax,%ecx
  101edc:	d3 e3                	shl    %cl,%ebx
  101ede:	89 d8                	mov    %ebx,%eax
  101ee0:	21 d0                	and    %edx,%eax
  101ee2:	8b 5d fc             	mov    -0x4(%ebp),%ebx
  101ee5:	c9                   	leave
  101ee6:	c3                   	ret

00101ee7 <first_frame>:
  101ee7:	55                   	push   %ebp
  101ee8:	89 e5                	mov    %esp,%ebp
  101eea:	83 ec 10             	sub    $0x10,%esp
  101eed:	c7 45 fc 00 00 00 00 	movl   $0x0,-0x4(%ebp)
  101ef4:	eb 61                	jmp    101f57 <first_frame+0x70>
  101ef6:	a1 e4 6d 10 00       	mov    0x106de4,%eax
  101efb:	8b 55 fc             	mov    -0x4(%ebp),%edx
  101efe:	c1 e2 02             	shl    $0x2,%edx
  101f01:	01 d0                	add    %edx,%eax
  101f03:	8b 00                	mov    (%eax),%eax
  101f05:	83 f8 ff             	cmp    $0xffffffff,%eax
  101f08:	74 49                	je     101f53 <first_frame+0x6c>
  101f0a:	c7 45 f8 00 00 00 00 	movl   $0x0,-0x8(%ebp)
  101f11:	eb 3a                	jmp    101f4d <first_frame+0x66>
  101f13:	8b 45 f8             	mov    -0x8(%ebp),%eax
  101f16:	ba 01 00 00 00       	mov    $0x1,%edx
  101f1b:	89 c1                	mov    %eax,%ecx
  101f1d:	d3 e2                	shl    %cl,%edx
  101f1f:	89 d0                	mov    %edx,%eax
  101f21:	89 45 f4             	mov    %eax,-0xc(%ebp)
  101f24:	a1 e4 6d 10 00       	mov    0x106de4,%eax
  101f29:	8b 55 fc             	mov    -0x4(%ebp),%edx
  101f2c:	c1 e2 02             	shl    $0x2,%edx
  101f2f:	01 d0                	add    %edx,%eax
  101f31:	8b 00                	mov    (%eax),%eax
  101f33:	23 45 f4             	and    -0xc(%ebp),%eax
  101f36:	85 c0                	test   %eax,%eax
  101f38:	75 0f                	jne    101f49 <first_frame+0x62>
  101f3a:	8b 45 fc             	mov    -0x4(%ebp),%eax
  101f3d:	c1 e0 05             	shl    $0x5,%eax
  101f40:	89 c2                	mov    %eax,%edx
  101f42:	8b 45 f8             	mov    -0x8(%ebp),%eax
  101f45:	01 d0                	add    %edx,%eax
  101f47:	eb 20                	jmp    101f69 <first_frame+0x82>
  101f49:	83 45 f8 01          	addl   $0x1,-0x8(%ebp)
  101f4d:	83 7d f8 1f          	cmpl   $0x1f,-0x8(%ebp)
  101f51:	76 c0                	jbe    101f13 <first_frame+0x2c>
  101f53:	83 45 fc 01          	addl   $0x1,-0x4(%ebp)
  101f57:	a1 e8 6d 10 00       	mov    0x106de8,%eax
  101f5c:	c1 e8 05             	shr    $0x5,%eax
  101f5f:	39 45 fc             	cmp    %eax,-0x4(%ebp)
  101f62:	72 92                	jb     101ef6 <first_frame+0xf>
  101f64:	b8 00 00 00 00       	mov    $0x0,%eax
  101f69:	c9                   	leave
  101f6a:	c3                   	ret

00101f6b <alloc_frame>:
  101f6b:	55                   	push   %ebp
  101f6c:	89 e5                	mov    %esp,%ebp
  101f6e:	83 ec 18             	sub    $0x18,%esp
  101f71:	8b 45 08             	mov    0x8(%ebp),%eax
  101f74:	8b 00                	mov    (%eax),%eax
  101f76:	25 00 f0 ff ff       	and    $0xfffff000,%eax
  101f7b:	85 c0                	test   %eax,%eax
  101f7d:	0f 85 93 00 00 00    	jne    102016 <alloc_frame+0xab>
  101f83:	e8 5f ff ff ff       	call   101ee7 <first_frame>
  101f88:	89 45 f4             	mov    %eax,-0xc(%ebp)
  101f8b:	83 7d f4 ff          	cmpl   $0xffffffff,-0xc(%ebp)
  101f8f:	75 10                	jne    101fa1 <alloc_frame+0x36>
  101f91:	83 ec 0c             	sub    $0xc,%esp
  101f94:	68 57 54 10 00       	push   $0x105457
  101f99:	e8 a2 f6 ff ff       	call   101640 <panic>
  101f9e:	83 c4 10             	add    $0x10,%esp
  101fa1:	8b 45 f4             	mov    -0xc(%ebp),%eax
  101fa4:	c1 e0 0c             	shl    $0xc,%eax
  101fa7:	83 ec 0c             	sub    $0xc,%esp
  101faa:	50                   	push   %eax
  101fab:	e8 3f fe ff ff       	call   101def <set_frame>
  101fb0:	83 c4 10             	add    $0x10,%esp
  101fb3:	8b 45 08             	mov    0x8(%ebp),%eax
  101fb6:	0f b6 10             	movzbl (%eax),%edx
  101fb9:	83 ca 01             	or     $0x1,%edx
  101fbc:	88 10                	mov    %dl,(%eax)
  101fbe:	83 7d 10 00          	cmpl   $0x0,0x10(%ebp)
  101fc2:	0f 95 c2             	setne  %dl
  101fc5:	8b 45 08             	mov    0x8(%ebp),%eax
  101fc8:	83 e2 01             	and    $0x1,%edx
  101fcb:	8d 0c 12             	lea    (%edx,%edx,1),%ecx
  101fce:	0f b6 10             	movzbl (%eax),%edx
  101fd1:	83 e2 fd             	and    $0xfffffffd,%edx
  101fd4:	09 ca                	or     %ecx,%edx
  101fd6:	88 10                	mov    %dl,(%eax)
  101fd8:	83 7d 0c 00          	cmpl   $0x0,0xc(%ebp)
  101fdc:	0f 94 c2             	sete   %dl
  101fdf:	8b 45 08             	mov    0x8(%ebp),%eax
  101fe2:	83 e2 01             	and    $0x1,%edx
  101fe5:	8d 0c 95 00 00 00 00 	lea    0x0(,%edx,4),%ecx
  101fec:	0f b6 10             	movzbl (%eax),%edx
  101fef:	83 e2 fb             	and    $0xfffffffb,%edx
  101ff2:	09 ca                	or     %ecx,%edx
  101ff4:	88 10                	mov    %dl,(%eax)
  101ff6:	8b 45 f4             	mov    -0xc(%ebp),%eax
  101ff9:	25 ff ff 0f 00       	and    $0xfffff,%eax
  101ffe:	89 c2                	mov    %eax,%edx
  102000:	8b 45 08             	mov    0x8(%ebp),%eax
  102003:	89 d1                	mov    %edx,%ecx
  102005:	c1 e1 0c             	shl    $0xc,%ecx
  102008:	8b 10                	mov    (%eax),%edx
  10200a:	81 e2 ff 0f 00 00    	and    $0xfff,%edx
  102010:	09 ca                	or     %ecx,%edx
  102012:	89 10                	mov    %edx,(%eax)
  102014:	eb 01                	jmp    102017 <alloc_frame+0xac>
  102016:	90                   	nop
  102017:	c9                   	leave
  102018:	c3                   	ret

00102019 <free_frame>:
  102019:	55                   	push   %ebp
  10201a:	89 e5                	mov    %esp,%ebp
  10201c:	83 ec 10             	sub    $0x10,%esp
  10201f:	8b 45 08             	mov    0x8(%ebp),%eax
  102022:	8b 00                	mov    (%eax),%eax
  102024:	c1 e8 0c             	shr    $0xc,%eax
  102027:	89 45 fc             	mov    %eax,-0x4(%ebp)
  10202a:	83 7d fc 00          	cmpl   $0x0,-0x4(%ebp)
  10202e:	74 1a                	je     10204a <free_frame+0x31>
  102030:	ff 75 fc             	push   -0x4(%ebp)
  102033:	e8 0f fe ff ff       	call   101e47 <clear_frame>
  102038:	83 c4 04             	add    $0x4,%esp
  10203b:	8b 45 08             	mov    0x8(%ebp),%eax
  10203e:	8b 10                	mov    (%eax),%edx
  102040:	81 e2 ff 0f 00 00    	and    $0xfff,%edx
  102046:	89 10                	mov    %edx,(%eax)
  102048:	eb 01                	jmp    10204b <free_frame+0x32>
  10204a:	90                   	nop
  10204b:	c9                   	leave
  10204c:	c3                   	ret

0010204d <map_address>:
  10204d:	55                   	push   %ebp
  10204e:	89 e5                	mov    %esp,%ebp
  102050:	83 ec 18             	sub    $0x18,%esp
  102053:	a1 f8 6d 10 00       	mov    0x106df8,%eax
  102058:	83 ec 04             	sub    $0x4,%esp
  10205b:	50                   	push   %eax
  10205c:	6a 01                	push   $0x1
  10205e:	ff 75 08             	push   0x8(%ebp)
  102061:	e8 dc 0a 00 00       	call   102b42 <get_page>
  102066:	83 c4 10             	add    $0x10,%esp
  102069:	89 45 f4             	mov    %eax,-0xc(%ebp)
  10206c:	83 7d f4 00          	cmpl   $0x0,-0xc(%ebp)
  102070:	75 12                	jne    102084 <map_address+0x37>
  102072:	83 ec 0c             	sub    $0xc,%esp
  102075:	68 67 54 10 00       	push   $0x105467
  10207a:	e8 c1 f5 ff ff       	call   101640 <panic>
  10207f:	83 c4 10             	add    $0x10,%esp
  102082:	eb 14                	jmp    102098 <map_address+0x4b>
  102084:	83 ec 04             	sub    $0x4,%esp
  102087:	ff 75 10             	push   0x10(%ebp)
  10208a:	ff 75 0c             	push   0xc(%ebp)
  10208d:	ff 75 f4             	push   -0xc(%ebp)
  102090:	e8 d6 fe ff ff       	call   101f6b <alloc_frame>
  102095:	83 c4 10             	add    $0x10,%esp
  102098:	c9                   	leave
  102099:	c3                   	ret

0010209a <page_fault>:
  10209a:	55                   	push   %ebp
  10209b:	89 e5                	mov    %esp,%ebp
  10209d:	56                   	push   %esi
  10209e:	53                   	push   %ebx
  10209f:	83 ec 20             	sub    $0x20,%esp
  1020a2:	0f 20 d0             	mov    %cr2,%eax
  1020a5:	89 45 f4             	mov    %eax,-0xc(%ebp)
  1020a8:	8b 45 08             	mov    0x8(%ebp),%eax
  1020ab:	8b 40 28             	mov    0x28(%eax),%eax
  1020ae:	83 e0 01             	and    $0x1,%eax
  1020b1:	89 45 f0             	mov    %eax,-0x10(%ebp)
  1020b4:	8b 45 08             	mov    0x8(%ebp),%eax
  1020b7:	8b 40 28             	mov    0x28(%eax),%eax
  1020ba:	83 e0 02             	and    $0x2,%eax
  1020bd:	89 45 ec             	mov    %eax,-0x14(%ebp)
  1020c0:	8b 45 08             	mov    0x8(%ebp),%eax
  1020c3:	8b 40 28             	mov    0x28(%eax),%eax
  1020c6:	83 e0 04             	and    $0x4,%eax
  1020c9:	89 45 e8             	mov    %eax,-0x18(%ebp)
  1020cc:	8b 45 08             	mov    0x8(%ebp),%eax
  1020cf:	8b 40 28             	mov    0x28(%eax),%eax
  1020d2:	83 e0 08             	and    $0x8,%eax
  1020d5:	89 45 e4             	mov    %eax,-0x1c(%ebp)
  1020d8:	8b 45 08             	mov    0x8(%ebp),%eax
  1020db:	8b 40 28             	mov    0x28(%eax),%eax
  1020de:	83 e0 10             	and    $0x10,%eax
  1020e1:	89 45 e0             	mov    %eax,-0x20(%ebp)
  1020e4:	8b 15 ec 6d 10 00    	mov    0x106dec,%edx
  1020ea:	83 7d e8 00          	cmpl   $0x0,-0x18(%ebp)
  1020ee:	74 07                	je     1020f7 <page_fault+0x5d>
  1020f0:	be 78 54 10 00       	mov    $0x105478,%esi
  1020f5:	eb 05                	jmp    1020fc <page_fault+0x62>
  1020f7:	be 82 54 10 00       	mov    $0x105482,%esi
  1020fc:	83 7d ec 00          	cmpl   $0x0,-0x14(%ebp)
  102100:	74 07                	je     102109 <page_fault+0x6f>
  102102:	bb 8e 54 10 00       	mov    $0x10548e,%ebx
  102107:	eb 05                	jmp    10210e <page_fault+0x74>
  102109:	bb 94 54 10 00       	mov    $0x105494,%ebx
  10210e:	83 7d f0 00          	cmpl   $0x0,-0x10(%ebp)
  102112:	74 07                	je     10211b <page_fault+0x81>
  102114:	b9 99 54 10 00       	mov    $0x105499,%ecx
  102119:	eb 05                	jmp    102120 <page_fault+0x86>
  10211b:	b9 a1 54 10 00       	mov    $0x1054a1,%ecx
  102120:	8b 45 08             	mov    0x8(%ebp),%eax
  102123:	8b 40 28             	mov    0x28(%eax),%eax
  102126:	52                   	push   %edx
  102127:	ff 75 f4             	push   -0xc(%ebp)
  10212a:	ff 75 e0             	push   -0x20(%ebp)
  10212d:	56                   	push   %esi
  10212e:	53                   	push   %ebx
  10212f:	51                   	push   %ecx
  102130:	50                   	push   %eax
  102131:	68 b0 54 10 00       	push   $0x1054b0
  102136:	e8 0a eb ff ff       	call   100c45 <kprintf>
  10213b:	83 c4 20             	add    $0x20,%esp
  10213e:	a1 ec 6d 10 00       	mov    0x106dec,%eax
  102143:	83 c0 01             	add    $0x1,%eax
  102146:	a3 ec 6d 10 00       	mov    %eax,0x106dec
  10214b:	a1 ec 6d 10 00       	mov    0x106dec,%eax
  102150:	83 f8 02             	cmp    $0x2,%eax
  102153:	7e 10                	jle    102165 <page_fault+0xcb>
  102155:	83 ec 0c             	sub    $0xc,%esp
  102158:	68 e2 54 10 00       	push   $0x1054e2
  10215d:	e8 de f4 ff ff       	call   101640 <panic>
  102162:	83 c4 10             	add    $0x10,%esp
  102165:	83 7d f0 00          	cmpl   $0x0,-0x10(%ebp)
  102169:	75 45                	jne    1021b0 <page_fault+0x116>
  10216b:	a1 f8 6d 10 00       	mov    0x106df8,%eax
  102170:	83 ec 04             	sub    $0x4,%esp
  102173:	50                   	push   %eax
  102174:	6a 01                	push   $0x1
  102176:	ff 75 f4             	push   -0xc(%ebp)
  102179:	e8 c4 09 00 00       	call   102b42 <get_page>
  10217e:	83 c4 10             	add    $0x10,%esp
  102181:	89 45 dc             	mov    %eax,-0x24(%ebp)
  102184:	83 7d dc 00          	cmpl   $0x0,-0x24(%ebp)
  102188:	75 12                	jne    10219c <page_fault+0x102>
  10218a:	83 ec 0c             	sub    $0xc,%esp
  10218d:	68 ed 54 10 00       	push   $0x1054ed
  102192:	e8 a9 f4 ff ff       	call   101640 <panic>
  102197:	83 c4 10             	add    $0x10,%esp
  10219a:	eb 24                	jmp    1021c0 <page_fault+0x126>
  10219c:	83 ec 04             	sub    $0x4,%esp
  10219f:	6a 01                	push   $0x1
  1021a1:	6a 01                	push   $0x1
  1021a3:	ff 75 dc             	push   -0x24(%ebp)
  1021a6:	e8 c0 fd ff ff       	call   101f6b <alloc_frame>
  1021ab:	83 c4 10             	add    $0x10,%esp
  1021ae:	eb 10                	jmp    1021c0 <page_fault+0x126>
  1021b0:	83 ec 0c             	sub    $0xc,%esp
  1021b3:	68 e2 54 10 00       	push   $0x1054e2
  1021b8:	e8 83 f4 ff ff       	call   101640 <panic>
  1021bd:	83 c4 10             	add    $0x10,%esp
  1021c0:	8d 65 f8             	lea    -0x8(%ebp),%esp
  1021c3:	5b                   	pop    %ebx
  1021c4:	5e                   	pop    %esi
  1021c5:	5d                   	pop    %ebp
  1021c6:	c3                   	ret

001021c7 <kheap_ready>:
  1021c7:	55                   	push   %ebp
  1021c8:	89 e5                	mov    %esp,%ebp
  1021ca:	a1 f0 6d 10 00       	mov    0x106df0,%eax
  1021cf:	5d                   	pop    %ebp
  1021d0:	c3                   	ret

001021d1 <header_t_less_than>:
  1021d1:	55                   	push   %ebp
  1021d2:	89 e5                	mov    %esp,%ebp
  1021d4:	8b 45 08             	mov    0x8(%ebp),%eax
  1021d7:	3b 45 0c             	cmp    0xc(%ebp),%eax
  1021da:	0f 92 c0             	setb   %al
  1021dd:	5d                   	pop    %ebp
  1021de:	c3                   	ret

001021df <create_heap>:
  1021df:	55                   	push   %ebp
  1021e0:	89 e5                	mov    %esp,%ebp
  1021e2:	53                   	push   %ebx
  1021e3:	83 ec 34             	sub    $0x34,%esp
  1021e6:	8b 55 14             	mov    0x14(%ebp),%edx
  1021e9:	8b 45 18             	mov    0x18(%ebp),%eax
  1021ec:	88 55 e4             	mov    %dl,-0x1c(%ebp)
  1021ef:	88 45 e0             	mov    %al,-0x20(%ebp)
  1021f2:	83 ec 0c             	sub    $0xc,%esp
  1021f5:	6a 24                	push   $0x24
  1021f7:	e8 b0 07 00 00       	call   1029ac <kmalloc_nofree>
  1021fc:	83 c4 10             	add    $0x10,%esp
  1021ff:	89 45 f4             	mov    %eax,-0xc(%ebp)
  102202:	83 ec 0c             	sub    $0xc,%esp
  102205:	68 00 08 00 00       	push   $0x800
  10220a:	e8 9d 07 00 00       	call   1029ac <kmalloc_nofree>
  10220f:	83 c4 10             	add    $0x10,%esp
  102212:	89 45 f0             	mov    %eax,-0x10(%ebp)
  102215:	83 7d f0 00          	cmpl   $0x0,-0x10(%ebp)
  102219:	75 1a                	jne    102235 <create_heap+0x56>
  10221b:	83 ec 0c             	sub    $0xc,%esp
  10221e:	68 00 55 10 00       	push   $0x105500
  102223:	e8 1d ea ff ff       	call   100c45 <kprintf>
  102228:	83 c4 10             	add    $0x10,%esp
  10222b:	b8 00 00 00 00       	mov    $0x0,%eax
  102230:	e9 be 00 00 00       	jmp    1022f3 <create_heap+0x114>
  102235:	8b 5d f4             	mov    -0xc(%ebp),%ebx
  102238:	8d 45 c8             	lea    -0x38(%ebp),%eax
  10223b:	68 d1 21 10 00       	push   $0x1021d1
  102240:	68 00 02 00 00       	push   $0x200
  102245:	ff 75 f0             	push   -0x10(%ebp)
  102248:	50                   	push   %eax
  102249:	e8 fb f6 ff ff       	call   101949 <place_ordered_array>
  10224e:	83 c4 0c             	add    $0xc,%esp
  102251:	8b 45 c8             	mov    -0x38(%ebp),%eax
  102254:	89 03                	mov    %eax,(%ebx)
  102256:	8b 45 cc             	mov    -0x34(%ebp),%eax
  102259:	89 43 04             	mov    %eax,0x4(%ebx)
  10225c:	8b 45 d0             	mov    -0x30(%ebp),%eax
  10225f:	89 43 08             	mov    %eax,0x8(%ebx)
  102262:	8b 45 d4             	mov    -0x2c(%ebp),%eax
  102265:	89 43 0c             	mov    %eax,0xc(%ebx)
  102268:	8b 45 f4             	mov    -0xc(%ebp),%eax
  10226b:	8b 55 08             	mov    0x8(%ebp),%edx
  10226e:	89 50 10             	mov    %edx,0x10(%eax)
  102271:	8b 45 f4             	mov    -0xc(%ebp),%eax
  102274:	8b 55 0c             	mov    0xc(%ebp),%edx
  102277:	89 50 14             	mov    %edx,0x14(%eax)
  10227a:	8b 45 f4             	mov    -0xc(%ebp),%eax
  10227d:	8b 55 10             	mov    0x10(%ebp),%edx
  102280:	89 50 18             	mov    %edx,0x18(%eax)
  102283:	0f b6 55 e4          	movzbl -0x1c(%ebp),%edx
  102287:	8b 45 f4             	mov    -0xc(%ebp),%eax
  10228a:	89 50 1c             	mov    %edx,0x1c(%eax)
  10228d:	8b 45 f4             	mov    -0xc(%ebp),%eax
  102290:	0f b6 55 e0          	movzbl -0x20(%ebp),%edx
  102294:	88 50 20             	mov    %dl,0x20(%eax)
  102297:	8b 45 08             	mov    0x8(%ebp),%eax
  10229a:	89 45 ec             	mov    %eax,-0x14(%ebp)
  10229d:	8b 45 0c             	mov    0xc(%ebp),%eax
  1022a0:	2b 45 08             	sub    0x8(%ebp),%eax
  1022a3:	89 c2                	mov    %eax,%edx
  1022a5:	8b 45 ec             	mov    -0x14(%ebp),%eax
  1022a8:	89 50 08             	mov    %edx,0x8(%eax)
  1022ab:	8b 45 ec             	mov    -0x14(%ebp),%eax
  1022ae:	c7 00 ab 90 38 12    	movl   $0x123890ab,(%eax)
  1022b4:	8b 45 ec             	mov    -0x14(%ebp),%eax
  1022b7:	c6 40 04 01          	movb   $0x1,0x4(%eax)
  1022bb:	8b 45 ec             	mov    -0x14(%ebp),%eax
  1022be:	8b 50 08             	mov    0x8(%eax),%edx
  1022c1:	8b 45 08             	mov    0x8(%ebp),%eax
  1022c4:	01 d0                	add    %edx,%eax
  1022c6:	83 e8 08             	sub    $0x8,%eax
  1022c9:	89 45 e8             	mov    %eax,-0x18(%ebp)
  1022cc:	8b 45 e8             	mov    -0x18(%ebp),%eax
  1022cf:	c7 00 ab 90 38 12    	movl   $0x123890ab,(%eax)
  1022d5:	8b 45 e8             	mov    -0x18(%ebp),%eax
  1022d8:	8b 55 ec             	mov    -0x14(%ebp),%edx
  1022db:	89 50 04             	mov    %edx,0x4(%eax)
  1022de:	8b 45 f4             	mov    -0xc(%ebp),%eax
  1022e1:	83 ec 08             	sub    $0x8,%esp
  1022e4:	50                   	push   %eax
  1022e5:	ff 75 ec             	push   -0x14(%ebp)
  1022e8:	e8 be f6 ff ff       	call   1019ab <insert_ordered_array>
  1022ed:	83 c4 10             	add    $0x10,%esp
  1022f0:	8b 45 f4             	mov    -0xc(%ebp),%eax
  1022f3:	8b 5d fc             	mov    -0x4(%ebp),%ebx
  1022f6:	c9                   	leave
  1022f7:	c3                   	ret

001022f8 <find_smallest_hole>:
  1022f8:	55                   	push   %ebp
  1022f9:	89 e5                	mov    %esp,%ebp
  1022fb:	83 ec 38             	sub    $0x38,%esp
  1022fe:	8b 45 0c             	mov    0xc(%ebp),%eax
  102301:	88 45 d4             	mov    %al,-0x2c(%ebp)
  102304:	c7 45 f4 00 00 00 00 	movl   $0x0,-0xc(%ebp)
  10230b:	eb 69                	jmp    102376 <find_smallest_hole+0x7e>
  10230d:	8b 45 10             	mov    0x10(%ebp),%eax
  102310:	83 ec 08             	sub    $0x8,%esp
  102313:	50                   	push   %eax
  102314:	ff 75 f4             	push   -0xc(%ebp)
  102317:	e8 97 f7 ff ff       	call   101ab3 <lookup_ordered_array>
  10231c:	83 c4 10             	add    $0x10,%esp
  10231f:	89 45 ec             	mov    %eax,-0x14(%ebp)
  102322:	80 7d d4 00          	cmpb   $0x0,-0x2c(%ebp)
  102326:	74 3f                	je     102367 <find_smallest_hole+0x6f>
  102328:	8b 45 ec             	mov    -0x14(%ebp),%eax
  10232b:	83 c0 0c             	add    $0xc,%eax
  10232e:	89 45 e8             	mov    %eax,-0x18(%ebp)
  102331:	c7 45 f0 00 00 00 00 	movl   $0x0,-0x10(%ebp)
  102338:	8b 45 e8             	mov    -0x18(%ebp),%eax
  10233b:	25 ff 0f 00 00       	and    $0xfff,%eax
  102340:	85 c0                	test   %eax,%eax
  102342:	74 0d                	je     102351 <find_smallest_hole+0x59>
  102344:	8b 45 e8             	mov    -0x18(%ebp),%eax
  102347:	f7 d8                	neg    %eax
  102349:	25 ff 0f 00 00       	and    $0xfff,%eax
  10234e:	89 45 f0             	mov    %eax,-0x10(%ebp)
  102351:	8b 45 ec             	mov    -0x14(%ebp),%eax
  102354:	8b 40 08             	mov    0x8(%eax),%eax
  102357:	2b 45 f0             	sub    -0x10(%ebp),%eax
  10235a:	89 45 e4             	mov    %eax,-0x1c(%ebp)
  10235d:	8b 45 e4             	mov    -0x1c(%ebp),%eax
  102360:	3b 45 08             	cmp    0x8(%ebp),%eax
  102363:	72 0d                	jb     102372 <find_smallest_hole+0x7a>
  102365:	eb 1d                	jmp    102384 <find_smallest_hole+0x8c>
  102367:	8b 45 ec             	mov    -0x14(%ebp),%eax
  10236a:	8b 40 08             	mov    0x8(%eax),%eax
  10236d:	3b 45 08             	cmp    0x8(%ebp),%eax
  102370:	73 11                	jae    102383 <find_smallest_hole+0x8b>
  102372:	83 45 f4 01          	addl   $0x1,-0xc(%ebp)
  102376:	8b 45 10             	mov    0x10(%ebp),%eax
  102379:	8b 40 04             	mov    0x4(%eax),%eax
  10237c:	39 45 f4             	cmp    %eax,-0xc(%ebp)
  10237f:	72 8c                	jb     10230d <find_smallest_hole+0x15>
  102381:	eb 01                	jmp    102384 <find_smallest_hole+0x8c>
  102383:	90                   	nop
  102384:	8b 45 10             	mov    0x10(%ebp),%eax
  102387:	8b 40 04             	mov    0x4(%eax),%eax
  10238a:	39 45 f4             	cmp    %eax,-0xc(%ebp)
  10238d:	75 07                	jne    102396 <find_smallest_hole+0x9e>
  10238f:	b8 ff ff ff ff       	mov    $0xffffffff,%eax
  102394:	eb 03                	jmp    102399 <find_smallest_hole+0xa1>
  102396:	8b 45 f4             	mov    -0xc(%ebp),%eax
  102399:	c9                   	leave
  10239a:	c3                   	ret

0010239b <heap_alloc>:
  10239b:	55                   	push   %ebp
  10239c:	89 e5                	mov    %esp,%ebp
  10239e:	83 ec 58             	sub    $0x58,%esp
  1023a1:	8b 45 0c             	mov    0xc(%ebp),%eax
  1023a4:	88 45 b4             	mov    %al,-0x4c(%ebp)
  1023a7:	8b 45 08             	mov    0x8(%ebp),%eax
  1023aa:	83 c0 14             	add    $0x14,%eax
  1023ad:	89 45 f4             	mov    %eax,-0xc(%ebp)
  1023b0:	0f b6 45 b4          	movzbl -0x4c(%ebp),%eax
  1023b4:	83 ec 04             	sub    $0x4,%esp
  1023b7:	ff 75 10             	push   0x10(%ebp)
  1023ba:	50                   	push   %eax
  1023bb:	ff 75 f4             	push   -0xc(%ebp)
  1023be:	e8 35 ff ff ff       	call   1022f8 <find_smallest_hole>
  1023c3:	83 c4 10             	add    $0x10,%esp
  1023c6:	89 45 e8             	mov    %eax,-0x18(%ebp)
  1023c9:	83 7d e8 ff          	cmpl   $0xffffffff,-0x18(%ebp)
  1023cd:	75 1a                	jne    1023e9 <heap_alloc+0x4e>
  1023cf:	83 ec 0c             	sub    $0xc,%esp
  1023d2:	68 24 55 10 00       	push   $0x105524
  1023d7:	e8 69 e8 ff ff       	call   100c45 <kprintf>
  1023dc:	83 c4 10             	add    $0x10,%esp
  1023df:	b8 00 00 00 00       	mov    $0x0,%eax
  1023e4:	e9 7b 01 00 00       	jmp    102564 <heap_alloc+0x1c9>
  1023e9:	8b 55 10             	mov    0x10(%ebp),%edx
  1023ec:	8b 45 e8             	mov    -0x18(%ebp),%eax
  1023ef:	83 ec 08             	sub    $0x8,%esp
  1023f2:	52                   	push   %edx
  1023f3:	50                   	push   %eax
  1023f4:	e8 ba f6 ff ff       	call   101ab3 <lookup_ordered_array>
  1023f9:	83 c4 10             	add    $0x10,%esp
  1023fc:	89 45 e4             	mov    %eax,-0x1c(%ebp)
  1023ff:	8b 45 e4             	mov    -0x1c(%ebp),%eax
  102402:	89 45 f0             	mov    %eax,-0x10(%ebp)
  102405:	8b 45 e4             	mov    -0x1c(%ebp),%eax
  102408:	8b 40 08             	mov    0x8(%eax),%eax
  10240b:	89 45 ec             	mov    %eax,-0x14(%ebp)
  10240e:	8b 45 f4             	mov    -0xc(%ebp),%eax
  102411:	83 c0 14             	add    $0x14,%eax
  102414:	3b 45 ec             	cmp    -0x14(%ebp),%eax
  102417:	72 0f                	jb     102428 <heap_alloc+0x8d>
  102419:	8b 45 ec             	mov    -0x14(%ebp),%eax
  10241c:	83 e8 14             	sub    $0x14,%eax
  10241f:	89 45 08             	mov    %eax,0x8(%ebp)
  102422:	8b 45 ec             	mov    -0x14(%ebp),%eax
  102425:	89 45 f4             	mov    %eax,-0xc(%ebp)
  102428:	8b 45 f0             	mov    -0x10(%ebp),%eax
  10242b:	83 c0 0c             	add    $0xc,%eax
  10242e:	89 45 e0             	mov    %eax,-0x20(%ebp)
  102431:	80 7d b4 00          	cmpb   $0x0,-0x4c(%ebp)
  102435:	74 5f                	je     102496 <heap_alloc+0xfb>
  102437:	8b 45 e0             	mov    -0x20(%ebp),%eax
  10243a:	25 ff 0f 00 00       	and    $0xfff,%eax
  10243f:	85 c0                	test   %eax,%eax
  102441:	74 53                	je     102496 <heap_alloc+0xfb>
  102443:	8b 45 e0             	mov    -0x20(%ebp),%eax
  102446:	05 00 10 00 00       	add    $0x1000,%eax
  10244b:	25 00 f0 ff ff       	and    $0xfffff000,%eax
  102450:	83 e8 0c             	sub    $0xc,%eax
  102453:	89 45 dc             	mov    %eax,-0x24(%ebp)
  102456:	8b 45 f0             	mov    -0x10(%ebp),%eax
  102459:	89 45 d8             	mov    %eax,-0x28(%ebp)
  10245c:	8b 45 dc             	mov    -0x24(%ebp),%eax
  10245f:	2b 45 f0             	sub    -0x10(%ebp),%eax
  102462:	89 c2                	mov    %eax,%edx
  102464:	8b 45 d8             	mov    -0x28(%ebp),%eax
  102467:	89 50 08             	mov    %edx,0x8(%eax)
  10246a:	8b 45 dc             	mov    -0x24(%ebp),%eax
  10246d:	83 e8 08             	sub    $0x8,%eax
  102470:	89 45 d4             	mov    %eax,-0x2c(%ebp)
  102473:	8b 45 d4             	mov    -0x2c(%ebp),%eax
  102476:	8b 55 d8             	mov    -0x28(%ebp),%edx
  102479:	89 50 04             	mov    %edx,0x4(%eax)
  10247c:	8b 45 d4             	mov    -0x2c(%ebp),%eax
  10247f:	c7 00 ab 90 38 12    	movl   $0x123890ab,(%eax)
  102485:	8b 45 dc             	mov    -0x24(%ebp),%eax
  102488:	89 45 f0             	mov    %eax,-0x10(%ebp)
  10248b:	8b 45 d8             	mov    -0x28(%ebp),%eax
  10248e:	8b 40 08             	mov    0x8(%eax),%eax
  102491:	29 45 ec             	sub    %eax,-0x14(%ebp)
  102494:	eb 13                	jmp    1024a9 <heap_alloc+0x10e>
  102496:	8b 55 10             	mov    0x10(%ebp),%edx
  102499:	8b 45 e8             	mov    -0x18(%ebp),%eax
  10249c:	83 ec 08             	sub    $0x8,%esp
  10249f:	52                   	push   %edx
  1024a0:	50                   	push   %eax
  1024a1:	e8 21 f6 ff ff       	call   101ac7 <remove_ordered_array>
  1024a6:	83 c4 10             	add    $0x10,%esp
  1024a9:	8b 45 f0             	mov    -0x10(%ebp),%eax
  1024ac:	89 45 d0             	mov    %eax,-0x30(%ebp)
  1024af:	8b 45 d0             	mov    -0x30(%ebp),%eax
  1024b2:	c7 00 ab 90 38 12    	movl   $0x123890ab,(%eax)
  1024b8:	8b 45 d0             	mov    -0x30(%ebp),%eax
  1024bb:	c6 40 04 00          	movb   $0x0,0x4(%eax)
  1024bf:	8b 45 d0             	mov    -0x30(%ebp),%eax
  1024c2:	8b 55 f4             	mov    -0xc(%ebp),%edx
  1024c5:	89 50 08             	mov    %edx,0x8(%eax)
  1024c8:	8b 55 f0             	mov    -0x10(%ebp),%edx
  1024cb:	8b 45 08             	mov    0x8(%ebp),%eax
  1024ce:	01 d0                	add    %edx,%eax
  1024d0:	83 c0 0c             	add    $0xc,%eax
  1024d3:	89 45 cc             	mov    %eax,-0x34(%ebp)
  1024d6:	8b 45 cc             	mov    -0x34(%ebp),%eax
  1024d9:	8b 55 d0             	mov    -0x30(%ebp),%edx
  1024dc:	89 50 04             	mov    %edx,0x4(%eax)
  1024df:	8b 45 cc             	mov    -0x34(%ebp),%eax
  1024e2:	c7 00 ab 90 38 12    	movl   $0x123890ab,(%eax)
  1024e8:	8b 45 ec             	mov    -0x14(%ebp),%eax
  1024eb:	3b 45 f4             	cmp    -0xc(%ebp),%eax
  1024ee:	74 6e                	je     10255e <heap_alloc+0x1c3>
  1024f0:	8b 45 d0             	mov    -0x30(%ebp),%eax
  1024f3:	8b 50 08             	mov    0x8(%eax),%edx
  1024f6:	8b 45 d0             	mov    -0x30(%ebp),%eax
  1024f9:	01 d0                	add    %edx,%eax
  1024fb:	89 45 c8             	mov    %eax,-0x38(%ebp)
  1024fe:	8b 45 c8             	mov    -0x38(%ebp),%eax
  102501:	c7 00 ab 90 38 12    	movl   $0x123890ab,(%eax)
  102507:	8b 45 c8             	mov    -0x38(%ebp),%eax
  10250a:	c6 40 04 01          	movb   $0x1,0x4(%eax)
  10250e:	8b 45 ec             	mov    -0x14(%ebp),%eax
  102511:	2b 45 f4             	sub    -0xc(%ebp),%eax
  102514:	89 c2                	mov    %eax,%edx
  102516:	8b 45 c8             	mov    -0x38(%ebp),%eax
  102519:	89 50 08             	mov    %edx,0x8(%eax)
  10251c:	8b 45 c8             	mov    -0x38(%ebp),%eax
  10251f:	8b 50 08             	mov    0x8(%eax),%edx
  102522:	8b 45 c8             	mov    -0x38(%ebp),%eax
  102525:	01 d0                	add    %edx,%eax
  102527:	83 e8 08             	sub    $0x8,%eax
  10252a:	89 45 c4             	mov    %eax,-0x3c(%ebp)
  10252d:	8b 45 10             	mov    0x10(%ebp),%eax
  102530:	8b 40 14             	mov    0x14(%eax),%eax
  102533:	8b 55 c4             	mov    -0x3c(%ebp),%edx
  102536:	39 c2                	cmp    %eax,%edx
  102538:	73 12                	jae    10254c <heap_alloc+0x1b1>
  10253a:	8b 45 c4             	mov    -0x3c(%ebp),%eax
  10253d:	c7 00 ab 90 38 12    	movl   $0x123890ab,(%eax)
  102543:	8b 45 c4             	mov    -0x3c(%ebp),%eax
  102546:	8b 55 c8             	mov    -0x38(%ebp),%edx
  102549:	89 50 04             	mov    %edx,0x4(%eax)
  10254c:	8b 45 10             	mov    0x10(%ebp),%eax
  10254f:	83 ec 08             	sub    $0x8,%esp
  102552:	50                   	push   %eax
  102553:	ff 75 c8             	push   -0x38(%ebp)
  102556:	e8 50 f4 ff ff       	call   1019ab <insert_ordered_array>
  10255b:	83 c4 10             	add    $0x10,%esp
  10255e:	8b 45 d0             	mov    -0x30(%ebp),%eax
  102561:	83 c0 0c             	add    $0xc,%eax
  102564:	c9                   	leave
  102565:	c3                   	ret

00102566 <heap_free>:
  102566:	55                   	push   %ebp
  102567:	89 e5                	mov    %esp,%ebp
  102569:	83 ec 28             	sub    $0x28,%esp
  10256c:	83 7d 08 00          	cmpl   $0x0,0x8(%ebp)
  102570:	0f 84 35 02 00 00    	je     1027ab <heap_free+0x245>
  102576:	8b 45 08             	mov    0x8(%ebp),%eax
  102579:	83 e8 0c             	sub    $0xc,%eax
  10257c:	89 45 f4             	mov    %eax,-0xc(%ebp)
  10257f:	8b 45 f4             	mov    -0xc(%ebp),%eax
  102582:	8b 50 08             	mov    0x8(%eax),%edx
  102585:	8b 45 f4             	mov    -0xc(%ebp),%eax
  102588:	01 d0                	add    %edx,%eax
  10258a:	83 e8 08             	sub    $0x8,%eax
  10258d:	89 45 e4             	mov    %eax,-0x1c(%ebp)
  102590:	8b 45 f4             	mov    -0xc(%ebp),%eax
  102593:	8b 00                	mov    (%eax),%eax
  102595:	3d ab 90 38 12       	cmp    $0x123890ab,%eax
  10259a:	74 15                	je     1025b1 <heap_free+0x4b>
  10259c:	83 ec 0c             	sub    $0xc,%esp
  10259f:	68 4c 55 10 00       	push   $0x10554c
  1025a4:	e8 9c e6 ff ff       	call   100c45 <kprintf>
  1025a9:	83 c4 10             	add    $0x10,%esp
  1025ac:	e9 fb 01 00 00       	jmp    1027ac <heap_free+0x246>
  1025b1:	8b 45 e4             	mov    -0x1c(%ebp),%eax
  1025b4:	8b 00                	mov    (%eax),%eax
  1025b6:	3d ab 90 38 12       	cmp    $0x123890ab,%eax
  1025bb:	74 15                	je     1025d2 <heap_free+0x6c>
  1025bd:	83 ec 0c             	sub    $0xc,%esp
  1025c0:	68 7c 55 10 00       	push   $0x10557c
  1025c5:	e8 7b e6 ff ff       	call   100c45 <kprintf>
  1025ca:	83 c4 10             	add    $0x10,%esp
  1025cd:	e9 da 01 00 00       	jmp    1027ac <heap_free+0x246>
  1025d2:	8b 45 f4             	mov    -0xc(%ebp),%eax
  1025d5:	c6 40 04 01          	movb   $0x1,0x4(%eax)
  1025d9:	c6 45 f3 01          	movb   $0x1,-0xd(%ebp)
  1025dd:	8b 45 0c             	mov    0xc(%ebp),%eax
  1025e0:	8b 50 10             	mov    0x10(%eax),%edx
  1025e3:	8b 45 f4             	mov    -0xc(%ebp),%eax
  1025e6:	39 c2                	cmp    %eax,%edx
  1025e8:	72 12                	jb     1025fc <heap_free+0x96>
  1025ea:	83 ec 0c             	sub    $0xc,%esp
  1025ed:	68 ac 55 10 00       	push   $0x1055ac
  1025f2:	e8 4e e6 ff ff       	call   100c45 <kprintf>
  1025f7:	83 c4 10             	add    $0x10,%esp
  1025fa:	eb 6c                	jmp    102668 <heap_free+0x102>
  1025fc:	8b 45 f4             	mov    -0xc(%ebp),%eax
  1025ff:	83 e8 08             	sub    $0x8,%eax
  102602:	89 45 e0             	mov    %eax,-0x20(%ebp)
  102605:	8b 45 e0             	mov    -0x20(%ebp),%eax
  102608:	8b 00                	mov    (%eax),%eax
  10260a:	3d ab 90 38 12       	cmp    $0x123890ab,%eax
  10260f:	75 37                	jne    102648 <heap_free+0xe2>
  102611:	8b 45 e0             	mov    -0x20(%ebp),%eax
  102614:	8b 40 04             	mov    0x4(%eax),%eax
  102617:	0f b6 40 04          	movzbl 0x4(%eax),%eax
  10261b:	3c 01                	cmp    $0x1,%al
  10261d:	75 29                	jne    102648 <heap_free+0xe2>
  10261f:	8b 45 f4             	mov    -0xc(%ebp),%eax
  102622:	8b 40 08             	mov    0x8(%eax),%eax
  102625:	89 45 dc             	mov    %eax,-0x24(%ebp)
  102628:	8b 45 e0             	mov    -0x20(%ebp),%eax
  10262b:	8b 40 04             	mov    0x4(%eax),%eax
  10262e:	89 45 f4             	mov    %eax,-0xc(%ebp)
  102631:	8b 45 f4             	mov    -0xc(%ebp),%eax
  102634:	8b 50 08             	mov    0x8(%eax),%edx
  102637:	8b 45 dc             	mov    -0x24(%ebp),%eax
  10263a:	01 c2                	add    %eax,%edx
  10263c:	8b 45 f4             	mov    -0xc(%ebp),%eax
  10263f:	89 50 08             	mov    %edx,0x8(%eax)
  102642:	c6 45 f3 00          	movb   $0x0,-0xd(%ebp)
  102646:	eb 20                	jmp    102668 <heap_free+0x102>
  102648:	8b 45 e0             	mov    -0x20(%ebp),%eax
  10264b:	8b 40 04             	mov    0x4(%eax),%eax
  10264e:	8b 10                	mov    (%eax),%edx
  102650:	8b 45 e0             	mov    -0x20(%ebp),%eax
  102653:	8b 40 04             	mov    0x4(%eax),%eax
  102656:	83 ec 04             	sub    $0x4,%esp
  102659:	52                   	push   %edx
  10265a:	50                   	push   %eax
  10265b:	68 e0 55 10 00       	push   $0x1055e0
  102660:	e8 e0 e5 ff ff       	call   100c45 <kprintf>
  102665:	83 c4 10             	add    $0x10,%esp
  102668:	8b 45 e4             	mov    -0x1c(%ebp),%eax
  10266b:	8d 50 08             	lea    0x8(%eax),%edx
  10266e:	8b 45 0c             	mov    0xc(%ebp),%eax
  102671:	8b 40 14             	mov    0x14(%eax),%eax
  102674:	39 c2                	cmp    %eax,%edx
  102676:	72 70                	jb     1026e8 <heap_free+0x182>
  102678:	80 7d f3 00          	cmpb   $0x0,-0xd(%ebp)
  10267c:	0f 85 0f 01 00 00    	jne    102791 <heap_free+0x22b>
  102682:	c7 45 ec 00 00 00 00 	movl   $0x0,-0x14(%ebp)
  102689:	eb 04                	jmp    10268f <heap_free+0x129>
  10268b:	83 45 ec 01          	addl   $0x1,-0x14(%ebp)
  10268f:	8b 45 0c             	mov    0xc(%ebp),%eax
  102692:	8b 40 04             	mov    0x4(%eax),%eax
  102695:	39 45 ec             	cmp    %eax,-0x14(%ebp)
  102698:	73 17                	jae    1026b1 <heap_free+0x14b>
  10269a:	8b 45 0c             	mov    0xc(%ebp),%eax
  10269d:	83 ec 08             	sub    $0x8,%esp
  1026a0:	50                   	push   %eax
  1026a1:	ff 75 ec             	push   -0x14(%ebp)
  1026a4:	e8 0a f4 ff ff       	call   101ab3 <lookup_ordered_array>
  1026a9:	83 c4 10             	add    $0x10,%esp
  1026ac:	39 45 f4             	cmp    %eax,-0xc(%ebp)
  1026af:	75 da                	jne    10268b <heap_free+0x125>
  1026b1:	8b 45 0c             	mov    0xc(%ebp),%eax
  1026b4:	8b 40 04             	mov    0x4(%eax),%eax
  1026b7:	39 45 ec             	cmp    %eax,-0x14(%ebp)
  1026ba:	72 15                	jb     1026d1 <heap_free+0x16b>
  1026bc:	83 ec 0c             	sub    $0xc,%esp
  1026bf:	68 0c 56 10 00       	push   $0x10560c
  1026c4:	e8 7c e5 ff ff       	call   100c45 <kprintf>
  1026c9:	83 c4 10             	add    $0x10,%esp
  1026cc:	e9 c0 00 00 00       	jmp    102791 <heap_free+0x22b>
  1026d1:	8b 45 0c             	mov    0xc(%ebp),%eax
  1026d4:	83 ec 08             	sub    $0x8,%esp
  1026d7:	50                   	push   %eax
  1026d8:	ff 75 ec             	push   -0x14(%ebp)
  1026db:	e8 e7 f3 ff ff       	call   101ac7 <remove_ordered_array>
  1026e0:	83 c4 10             	add    $0x10,%esp
  1026e3:	e9 a9 00 00 00       	jmp    102791 <heap_free+0x22b>
  1026e8:	8b 45 e4             	mov    -0x1c(%ebp),%eax
  1026eb:	83 c0 40             	add    $0x40,%eax
  1026ee:	89 45 d8             	mov    %eax,-0x28(%ebp)
  1026f1:	8b 45 d8             	mov    -0x28(%ebp),%eax
  1026f4:	8b 00                	mov    (%eax),%eax
  1026f6:	3d ab 90 38 12       	cmp    $0x123890ab,%eax
  1026fb:	0f 85 90 00 00 00    	jne    102791 <heap_free+0x22b>
  102701:	8b 45 d8             	mov    -0x28(%ebp),%eax
  102704:	0f b6 40 04          	movzbl 0x4(%eax),%eax
  102708:	84 c0                	test   %al,%al
  10270a:	0f 84 81 00 00 00    	je     102791 <heap_free+0x22b>
  102710:	8b 45 d8             	mov    -0x28(%ebp),%eax
  102713:	8b 50 08             	mov    0x8(%eax),%edx
  102716:	89 d0                	mov    %edx,%eax
  102718:	01 c0                	add    %eax,%eax
  10271a:	01 d0                	add    %edx,%eax
  10271c:	c1 e0 02             	shl    $0x2,%eax
  10271f:	8d 50 a0             	lea    -0x60(%eax),%edx
  102722:	8b 45 d8             	mov    -0x28(%ebp),%eax
  102725:	01 d0                	add    %edx,%eax
  102727:	89 45 e4             	mov    %eax,-0x1c(%ebp)
  10272a:	8b 45 e4             	mov    -0x1c(%ebp),%eax
  10272d:	8b 55 f4             	mov    -0xc(%ebp),%edx
  102730:	89 50 04             	mov    %edx,0x4(%eax)
  102733:	c7 45 e8 00 00 00 00 	movl   $0x0,-0x18(%ebp)
  10273a:	eb 04                	jmp    102740 <heap_free+0x1da>
  10273c:	83 45 e8 01          	addl   $0x1,-0x18(%ebp)
  102740:	8b 45 0c             	mov    0xc(%ebp),%eax
  102743:	8b 40 04             	mov    0x4(%eax),%eax
  102746:	39 45 e8             	cmp    %eax,-0x18(%ebp)
  102749:	73 17                	jae    102762 <heap_free+0x1fc>
  10274b:	8b 45 0c             	mov    0xc(%ebp),%eax
  10274e:	83 ec 08             	sub    $0x8,%esp
  102751:	50                   	push   %eax
  102752:	ff 75 e8             	push   -0x18(%ebp)
  102755:	e8 59 f3 ff ff       	call   101ab3 <lookup_ordered_array>
  10275a:	83 c4 10             	add    $0x10,%esp
  10275d:	39 45 d8             	cmp    %eax,-0x28(%ebp)
  102760:	75 da                	jne    10273c <heap_free+0x1d6>
  102762:	8b 45 0c             	mov    0xc(%ebp),%eax
  102765:	8b 40 04             	mov    0x4(%eax),%eax
  102768:	39 45 e8             	cmp    %eax,-0x18(%ebp)
  10276b:	72 12                	jb     10277f <heap_free+0x219>
  10276d:	83 ec 0c             	sub    $0xc,%esp
  102770:	68 34 56 10 00       	push   $0x105634
  102775:	e8 cb e4 ff ff       	call   100c45 <kprintf>
  10277a:	83 c4 10             	add    $0x10,%esp
  10277d:	eb 2d                	jmp    1027ac <heap_free+0x246>
  10277f:	8b 45 0c             	mov    0xc(%ebp),%eax
  102782:	83 ec 08             	sub    $0x8,%esp
  102785:	50                   	push   %eax
  102786:	ff 75 e8             	push   -0x18(%ebp)
  102789:	e8 39 f3 ff ff       	call   101ac7 <remove_ordered_array>
  10278e:	83 c4 10             	add    $0x10,%esp
  102791:	80 7d f3 01          	cmpb   $0x1,-0xd(%ebp)
  102795:	75 15                	jne    1027ac <heap_free+0x246>
  102797:	8b 45 0c             	mov    0xc(%ebp),%eax
  10279a:	83 ec 08             	sub    $0x8,%esp
  10279d:	50                   	push   %eax
  10279e:	ff 75 f4             	push   -0xc(%ebp)
  1027a1:	e8 05 f2 ff ff       	call   1019ab <insert_ordered_array>
  1027a6:	83 c4 10             	add    $0x10,%esp
  1027a9:	eb 01                	jmp    1027ac <heap_free+0x246>
  1027ab:	90                   	nop
  1027ac:	c9                   	leave
  1027ad:	c3                   	ret

001027ae <init_kheap>:
  1027ae:	55                   	push   %ebp
  1027af:	89 e5                	mov    %esp,%ebp
  1027b1:	83 ec 18             	sub    $0x18,%esp
  1027b4:	83 ec 0c             	sub    $0xc,%esp
  1027b7:	6a 00                	push   $0x0
  1027b9:	6a 00                	push   $0x0
  1027bb:	68 00 00 00 40       	push   $0x40000000
  1027c0:	68 00 00 30 c0       	push   $0xc0300000
  1027c5:	68 00 00 00 c0       	push   $0xc0000000
  1027ca:	e8 10 fa ff ff       	call   1021df <create_heap>
  1027cf:	83 c4 20             	add    $0x20,%esp
  1027d2:	89 45 f4             	mov    %eax,-0xc(%ebp)
  1027d5:	c7 05 f0 6d 10 00 01 	movl   $0x1,0x106df0
  1027dc:	00 00 00 
  1027df:	8b 45 f4             	mov    -0xc(%ebp),%eax
  1027e2:	c9                   	leave
  1027e3:	c3                   	ret

001027e4 <init_dynamic_heap>:
  1027e4:	55                   	push   %ebp
  1027e5:	89 e5                	mov    %esp,%ebp
  1027e7:	83 ec 08             	sub    $0x8,%esp
  1027ea:	83 ec 0c             	sub    $0xc,%esp
  1027ed:	6a 00                	push   $0x0
  1027ef:	6a 00                	push   $0x0
  1027f1:	68 00 00 00 40       	push   $0x40000000
  1027f6:	68 00 00 30 c0       	push   $0xc0300000
  1027fb:	68 00 00 00 c0       	push   $0xc0000000
  102800:	e8 a9 ff ff ff       	call   1027ae <init_kheap>
  102805:	83 c4 20             	add    $0x20,%esp
  102808:	a3 f4 6d 10 00       	mov    %eax,0x106df4
  10280d:	90                   	nop
  10280e:	c9                   	leave
  10280f:	c3                   	ret

00102810 <dynamic_heap_alloc>:
  102810:	55                   	push   %ebp
  102811:	89 e5                	mov    %esp,%ebp
  102813:	83 ec 18             	sub    $0x18,%esp
  102816:	8b 45 0c             	mov    0xc(%ebp),%eax
  102819:	88 45 f4             	mov    %al,-0xc(%ebp)
  10281c:	a1 f4 6d 10 00       	mov    0x106df4,%eax
  102821:	85 c0                	test   %eax,%eax
  102823:	74 1c                	je     102841 <dynamic_heap_alloc+0x31>
  102825:	8b 15 f4 6d 10 00    	mov    0x106df4,%edx
  10282b:	0f b6 45 f4          	movzbl -0xc(%ebp),%eax
  10282f:	83 ec 04             	sub    $0x4,%esp
  102832:	52                   	push   %edx
  102833:	50                   	push   %eax
  102834:	ff 75 08             	push   0x8(%ebp)
  102837:	e8 5f fb ff ff       	call   10239b <heap_alloc>
  10283c:	83 c4 10             	add    $0x10,%esp
  10283f:	eb 05                	jmp    102846 <dynamic_heap_alloc+0x36>
  102841:	b8 00 00 00 00       	mov    $0x0,%eax
  102846:	c9                   	leave
  102847:	c3                   	ret

00102848 <dynamic_heap_free>:
  102848:	55                   	push   %ebp
  102849:	89 e5                	mov    %esp,%ebp
  10284b:	83 ec 08             	sub    $0x8,%esp
  10284e:	a1 f4 6d 10 00       	mov    0x106df4,%eax
  102853:	85 c0                	test   %eax,%eax
  102855:	74 14                	je     10286b <dynamic_heap_free+0x23>
  102857:	a1 f4 6d 10 00       	mov    0x106df4,%eax
  10285c:	83 ec 08             	sub    $0x8,%esp
  10285f:	50                   	push   %eax
  102860:	ff 75 08             	push   0x8(%ebp)
  102863:	e8 fe fc ff ff       	call   102566 <heap_free>
  102868:	83 c4 10             	add    $0x10,%esp
  10286b:	90                   	nop
  10286c:	c9                   	leave
  10286d:	c3                   	ret

0010286e <set_addr_mapping>:
  10286e:	55                   	push   %ebp
  10286f:	89 e5                	mov    %esp,%ebp
  102871:	83 ec 18             	sub    $0x18,%esp
  102874:	eb 47                	jmp    1028bd <set_addr_mapping+0x4f>
  102876:	83 ec 04             	sub    $0x4,%esp
  102879:	ff 75 10             	push   0x10(%ebp)
  10287c:	6a 01                	push   $0x1
  10287e:	ff 75 08             	push   0x8(%ebp)
  102881:	e8 bc 02 00 00       	call   102b42 <get_page>
  102886:	83 c4 10             	add    $0x10,%esp
  102889:	89 45 f4             	mov    %eax,-0xc(%ebp)
  10288c:	83 7d f4 00          	cmpl   $0x0,-0xc(%ebp)
  102890:	75 12                	jne    1028a4 <set_addr_mapping+0x36>
  102892:	83 ec 0c             	sub    $0xc,%esp
  102895:	68 64 56 10 00       	push   $0x105664
  10289a:	e8 a6 e3 ff ff       	call   100c45 <kprintf>
  10289f:	83 c4 10             	add    $0x10,%esp
  1028a2:	eb 21                	jmp    1028c5 <set_addr_mapping+0x57>
  1028a4:	83 ec 04             	sub    $0x4,%esp
  1028a7:	6a 01                	push   $0x1
  1028a9:	6a 00                	push   $0x0
  1028ab:	ff 75 f4             	push   -0xc(%ebp)
  1028ae:	e8 b8 f6 ff ff       	call   101f6b <alloc_frame>
  1028b3:	83 c4 10             	add    $0x10,%esp
  1028b6:	81 45 08 00 10 00 00 	addl   $0x1000,0x8(%ebp)
  1028bd:	8b 45 08             	mov    0x8(%ebp),%eax
  1028c0:	3b 45 0c             	cmp    0xc(%ebp),%eax
  1028c3:	72 b1                	jb     102876 <set_addr_mapping+0x8>
  1028c5:	c9                   	leave
  1028c6:	c3                   	ret

001028c7 <init_memory>:
  1028c7:	55                   	push   %ebp
  1028c8:	89 e5                	mov    %esp,%ebp
  1028ca:	83 ec 18             	sub    $0x18,%esp
  1028cd:	c7 05 ec 6d 10 00 00 	movl   $0x0,0x106dec
  1028d4:	00 00 00 
  1028d7:	e8 91 01 00 00       	call   102a6d <init_nofree_mem>
  1028dc:	c7 45 f4 00 00 00 01 	movl   $0x1000000,-0xc(%ebp)
  1028e3:	8b 45 f4             	mov    -0xc(%ebp),%eax
  1028e6:	c1 e8 0c             	shr    $0xc,%eax
  1028e9:	a3 e8 6d 10 00       	mov    %eax,0x106de8
  1028ee:	83 ec 08             	sub    $0x8,%esp
  1028f1:	6a 01                	push   $0x1
  1028f3:	68 00 20 00 00       	push   $0x2000
  1028f8:	e8 fb 00 00 00       	call   1029f8 <kmalloc_a_nofree>
  1028fd:	83 c4 10             	add    $0x10,%esp
  102900:	89 45 f0             	mov    %eax,-0x10(%ebp)
  102903:	83 ec 04             	sub    $0x4,%esp
  102906:	68 00 20 00 00       	push   $0x2000
  10290b:	6a 00                	push   $0x0
  10290d:	ff 75 f0             	push   -0x10(%ebp)
  102910:	e8 bd ef ff ff       	call   1018d2 <kmemset>
  102915:	83 c4 10             	add    $0x10,%esp
  102918:	8b 45 f0             	mov    -0x10(%ebp),%eax
  10291b:	a3 f8 6d 10 00       	mov    %eax,0x106df8
  102920:	a1 e8 6d 10 00       	mov    0x106de8,%eax
  102925:	c1 e8 05             	shr    $0x5,%eax
  102928:	83 ec 0c             	sub    $0xc,%esp
  10292b:	50                   	push   %eax
  10292c:	e8 7b 00 00 00       	call   1029ac <kmalloc_nofree>
  102931:	83 c4 10             	add    $0x10,%esp
  102934:	a3 e4 6d 10 00       	mov    %eax,0x106de4
  102939:	a1 e8 6d 10 00       	mov    0x106de8,%eax
  10293e:	c1 e8 05             	shr    $0x5,%eax
  102941:	89 c2                	mov    %eax,%edx
  102943:	a1 e4 6d 10 00       	mov    0x106de4,%eax
  102948:	83 ec 04             	sub    $0x4,%esp
  10294b:	52                   	push   %edx
  10294c:	6a 00                	push   $0x0
  10294e:	50                   	push   %eax
  10294f:	e8 7e ef ff ff       	call   1018d2 <kmemset>
  102954:	83 c4 10             	add    $0x10,%esp
  102957:	83 ec 04             	sub    $0x4,%esp
  10295a:	ff 75 f0             	push   -0x10(%ebp)
  10295d:	68 00 00 20 00       	push   $0x200000
  102962:	6a 00                	push   $0x0
  102964:	e8 05 ff ff ff       	call   10286e <set_addr_mapping>
  102969:	83 c4 10             	add    $0x10,%esp
  10296c:	83 ec 04             	sub    $0x4,%esp
  10296f:	ff 75 f0             	push   -0x10(%ebp)
  102972:	68 00 00 30 c0       	push   $0xc0300000
  102977:	68 00 00 00 c0       	push   $0xc0000000
  10297c:	e8 ed fe ff ff       	call   10286e <set_addr_mapping>
  102981:	83 c4 10             	add    $0x10,%esp
  102984:	83 ec 08             	sub    $0x8,%esp
  102987:	68 9a 20 10 00       	push   $0x10209a
  10298c:	6a 0e                	push   $0xe
  10298e:	e8 10 ec ff ff       	call   1015a3 <register_interrupt_handler>
  102993:	83 c4 10             	add    $0x10,%esp
  102996:	83 ec 0c             	sub    $0xc,%esp
  102999:	ff 75 f0             	push   -0x10(%ebp)
  10299c:	e8 7a 01 00 00       	call   102b1b <switch_page_directory>
  1029a1:	83 c4 10             	add    $0x10,%esp
  1029a4:	e8 3b fe ff ff       	call   1027e4 <init_dynamic_heap>
  1029a9:	90                   	nop
  1029aa:	c9                   	leave
  1029ab:	c3                   	ret

001029ac <kmalloc_nofree>:
  1029ac:	55                   	push   %ebp
  1029ad:	89 e5                	mov    %esp,%ebp
  1029af:	83 ec 18             	sub    $0x18,%esp
  1029b2:	8b 15 fc 6d 10 00    	mov    0x106dfc,%edx
  1029b8:	8b 45 08             	mov    0x8(%ebp),%eax
  1029bb:	01 d0                	add    %edx,%eax
  1029bd:	3d ff ff 09 00       	cmp    $0x9ffff,%eax
  1029c2:	76 17                	jbe    1029db <kmalloc_nofree+0x2f>
  1029c4:	83 ec 0c             	sub    $0xc,%esp
  1029c7:	68 80 56 10 00       	push   $0x105680
  1029cc:	e8 74 e2 ff ff       	call   100c45 <kprintf>
  1029d1:	83 c4 10             	add    $0x10,%esp
  1029d4:	b8 00 00 00 00       	mov    $0x0,%eax
  1029d9:	eb 1b                	jmp    1029f6 <kmalloc_nofree+0x4a>
  1029db:	a1 fc 6d 10 00       	mov    0x106dfc,%eax
  1029e0:	89 45 f4             	mov    %eax,-0xc(%ebp)
  1029e3:	8b 15 fc 6d 10 00    	mov    0x106dfc,%edx
  1029e9:	8b 45 08             	mov    0x8(%ebp),%eax
  1029ec:	01 d0                	add    %edx,%eax
  1029ee:	a3 fc 6d 10 00       	mov    %eax,0x106dfc
  1029f3:	8b 45 f4             	mov    -0xc(%ebp),%eax
  1029f6:	c9                   	leave
  1029f7:	c3                   	ret

001029f8 <kmalloc_a_nofree>:
  1029f8:	55                   	push   %ebp
  1029f9:	89 e5                	mov    %esp,%ebp
  1029fb:	83 ec 18             	sub    $0x18,%esp
  1029fe:	83 7d 0c 01          	cmpl   $0x1,0xc(%ebp)
  102a02:	75 2c                	jne    102a30 <kmalloc_a_nofree+0x38>
  102a04:	a1 fc 6d 10 00       	mov    0x106dfc,%eax
  102a09:	25 ff 0f 00 00       	and    $0xfff,%eax
  102a0e:	85 c0                	test   %eax,%eax
  102a10:	74 1e                	je     102a30 <kmalloc_a_nofree+0x38>
  102a12:	a1 fc 6d 10 00       	mov    0x106dfc,%eax
  102a17:	25 00 f0 ff ff       	and    $0xfffff000,%eax
  102a1c:	a3 fc 6d 10 00       	mov    %eax,0x106dfc
  102a21:	a1 fc 6d 10 00       	mov    0x106dfc,%eax
  102a26:	05 00 10 00 00       	add    $0x1000,%eax
  102a2b:	a3 fc 6d 10 00       	mov    %eax,0x106dfc
  102a30:	83 ec 0c             	sub    $0xc,%esp
  102a33:	ff 75 08             	push   0x8(%ebp)
  102a36:	e8 71 ff ff ff       	call   1029ac <kmalloc_nofree>
  102a3b:	83 c4 10             	add    $0x10,%esp
  102a3e:	89 45 f4             	mov    %eax,-0xc(%ebp)
  102a41:	8b 45 f4             	mov    -0xc(%ebp),%eax
  102a44:	c9                   	leave
  102a45:	c3                   	ret

00102a46 <kmalloc_ap_nofree>:
  102a46:	55                   	push   %ebp
  102a47:	89 e5                	mov    %esp,%ebp
  102a49:	83 ec 18             	sub    $0x18,%esp
  102a4c:	83 ec 08             	sub    $0x8,%esp
  102a4f:	ff 75 0c             	push   0xc(%ebp)
  102a52:	ff 75 08             	push   0x8(%ebp)
  102a55:	e8 9e ff ff ff       	call   1029f8 <kmalloc_a_nofree>
  102a5a:	83 c4 10             	add    $0x10,%esp
  102a5d:	89 45 f4             	mov    %eax,-0xc(%ebp)
  102a60:	8b 45 10             	mov    0x10(%ebp),%eax
  102a63:	8b 55 f4             	mov    -0xc(%ebp),%edx
  102a66:	89 10                	mov    %edx,(%eax)
  102a68:	8b 45 f4             	mov    -0xc(%ebp),%eax
  102a6b:	c9                   	leave
  102a6c:	c3                   	ret

00102a6d <init_nofree_mem>:
  102a6d:	55                   	push   %ebp
  102a6e:	89 e5                	mov    %esp,%ebp
  102a70:	83 ec 18             	sub    $0x18,%esp
  102a73:	c7 45 f4 00 00 00 00 	movl   $0x0,-0xc(%ebp)
  102a7a:	a1 fc 6d 10 00       	mov    0x106dfc,%eax
  102a7f:	83 ec 08             	sub    $0x8,%esp
  102a82:	50                   	push   %eax
  102a83:	68 a9 56 10 00       	push   $0x1056a9
  102a88:	e8 b8 e1 ff ff       	call   100c45 <kprintf>
  102a8d:	83 c4 10             	add    $0x10,%esp
  102a90:	90                   	nop
  102a91:	c9                   	leave
  102a92:	c3                   	ret

00102a93 <vaddr_to_paddr>:
  102a93:	55                   	push   %ebp
  102a94:	89 e5                	mov    %esp,%ebp
  102a96:	83 ec 28             	sub    $0x28,%esp
  102a99:	8b 45 08             	mov    0x8(%ebp),%eax
  102a9c:	c1 e8 16             	shr    $0x16,%eax
  102a9f:	89 45 f4             	mov    %eax,-0xc(%ebp)
  102aa2:	a1 f8 6d 10 00       	mov    0x106df8,%eax
  102aa7:	8b 55 f4             	mov    -0xc(%ebp),%edx
  102aaa:	8b 04 90             	mov    (%eax,%edx,4),%eax
  102aad:	89 45 f0             	mov    %eax,-0x10(%ebp)
  102ab0:	83 7d f0 00          	cmpl   $0x0,-0x10(%ebp)
  102ab4:	75 10                	jne    102ac6 <vaddr_to_paddr+0x33>
  102ab6:	83 ec 0c             	sub    $0xc,%esp
  102ab9:	68 c4 56 10 00       	push   $0x1056c4
  102abe:	e8 82 e1 ff ff       	call   100c45 <kprintf>
  102ac3:	83 c4 10             	add    $0x10,%esp
  102ac6:	8b 45 08             	mov    0x8(%ebp),%eax
  102ac9:	c1 e8 0c             	shr    $0xc,%eax
  102acc:	25 ff 03 00 00       	and    $0x3ff,%eax
  102ad1:	89 45 ec             	mov    %eax,-0x14(%ebp)
  102ad4:	8b 45 ec             	mov    -0x14(%ebp),%eax
  102ad7:	8d 14 85 00 00 00 00 	lea    0x0(,%eax,4),%edx
  102ade:	8b 45 f0             	mov    -0x10(%ebp),%eax
  102ae1:	01 d0                	add    %edx,%eax
  102ae3:	89 45 e8             	mov    %eax,-0x18(%ebp)
  102ae6:	83 7d e8 00          	cmpl   $0x0,-0x18(%ebp)
  102aea:	75 10                	jne    102afc <vaddr_to_paddr+0x69>
  102aec:	83 ec 0c             	sub    $0xc,%esp
  102aef:	68 dc 56 10 00       	push   $0x1056dc
  102af4:	e8 4c e1 ff ff       	call   100c45 <kprintf>
  102af9:	83 c4 10             	add    $0x10,%esp
  102afc:	8b 45 e8             	mov    -0x18(%ebp),%eax
  102aff:	8b 00                	mov    (%eax),%eax
  102b01:	c1 e8 0c             	shr    $0xc,%eax
  102b04:	c1 e0 0c             	shl    $0xc,%eax
  102b07:	89 c2                	mov    %eax,%edx
  102b09:	8b 45 08             	mov    0x8(%ebp),%eax
  102b0c:	25 ff 0f 00 00       	and    $0xfff,%eax
  102b11:	01 d0                	add    %edx,%eax
  102b13:	89 45 e4             	mov    %eax,-0x1c(%ebp)
  102b16:	8b 45 e4             	mov    -0x1c(%ebp),%eax
  102b19:	c9                   	leave
  102b1a:	c3                   	ret

00102b1b <switch_page_directory>:
  102b1b:	55                   	push   %ebp
  102b1c:	89 e5                	mov    %esp,%ebp
  102b1e:	83 ec 10             	sub    $0x10,%esp
  102b21:	8b 45 08             	mov    0x8(%ebp),%eax
  102b24:	05 00 10 00 00       	add    $0x1000,%eax
  102b29:	0f 22 d8             	mov    %eax,%cr3
  102b2c:	0f 20 c0             	mov    %cr0,%eax
  102b2f:	89 45 fc             	mov    %eax,-0x4(%ebp)
  102b32:	81 4d fc 00 00 00 80 	orl    $0x80000000,-0x4(%ebp)
  102b39:	8b 45 fc             	mov    -0x4(%ebp),%eax
  102b3c:	0f 22 c0             	mov    %eax,%cr0
  102b3f:	90                   	nop
  102b40:	c9                   	leave
  102b41:	c3                   	ret

00102b42 <get_page>:
  102b42:	55                   	push   %ebp
  102b43:	89 e5                	mov    %esp,%ebp
  102b45:	83 ec 18             	sub    $0x18,%esp
  102b48:	8b 45 08             	mov    0x8(%ebp),%eax
  102b4b:	c1 e8 0c             	shr    $0xc,%eax
  102b4e:	89 45 08             	mov    %eax,0x8(%ebp)
  102b51:	8b 45 08             	mov    0x8(%ebp),%eax
  102b54:	c1 e8 0a             	shr    $0xa,%eax
  102b57:	89 45 f4             	mov    %eax,-0xc(%ebp)
  102b5a:	8b 45 10             	mov    0x10(%ebp),%eax
  102b5d:	8b 55 f4             	mov    -0xc(%ebp),%edx
  102b60:	8b 04 90             	mov    (%eax,%edx,4),%eax
  102b63:	85 c0                	test   %eax,%eax
  102b65:	74 1c                	je     102b83 <get_page+0x41>
  102b67:	8b 45 10             	mov    0x10(%ebp),%eax
  102b6a:	8b 55 f4             	mov    -0xc(%ebp),%edx
  102b6d:	8b 04 90             	mov    (%eax,%edx,4),%eax
  102b70:	8b 55 08             	mov    0x8(%ebp),%edx
  102b73:	81 e2 ff 03 00 00    	and    $0x3ff,%edx
  102b79:	c1 e2 02             	shl    $0x2,%edx
  102b7c:	01 d0                	add    %edx,%eax
  102b7e:	e9 00 01 00 00       	jmp    102c83 <get_page+0x141>
  102b83:	83 7d 0c 00          	cmpl   $0x0,0xc(%ebp)
  102b87:	0f 84 f1 00 00 00    	je     102c7e <get_page+0x13c>
  102b8d:	c7 45 f0 00 00 00 00 	movl   $0x0,-0x10(%ebp)
  102b94:	83 ec 04             	sub    $0x4,%esp
  102b97:	8d 45 f0             	lea    -0x10(%ebp),%eax
  102b9a:	50                   	push   %eax
  102b9b:	6a 01                	push   $0x1
  102b9d:	68 00 10 00 00       	push   $0x1000
  102ba2:	e8 9f fe ff ff       	call   102a46 <kmalloc_ap_nofree>
  102ba7:	83 c4 10             	add    $0x10,%esp
  102baa:	89 c1                	mov    %eax,%ecx
  102bac:	8b 45 10             	mov    0x10(%ebp),%eax
  102baf:	8b 55 f4             	mov    -0xc(%ebp),%edx
  102bb2:	89 0c 90             	mov    %ecx,(%eax,%edx,4)
  102bb5:	8b 45 10             	mov    0x10(%ebp),%eax
  102bb8:	8b 55 f4             	mov    -0xc(%ebp),%edx
  102bbb:	8b 04 90             	mov    (%eax,%edx,4),%eax
  102bbe:	85 c0                	test   %eax,%eax
  102bc0:	75 3e                	jne    102c00 <get_page+0xbe>
  102bc2:	e8 00 f6 ff ff       	call   1021c7 <kheap_ready>
  102bc7:	85 c0                	test   %eax,%eax
  102bc9:	74 35                	je     102c00 <get_page+0xbe>
  102bcb:	83 ec 08             	sub    $0x8,%esp
  102bce:	6a 01                	push   $0x1
  102bd0:	68 00 10 00 00       	push   $0x1000
  102bd5:	e8 7d ec ff ff       	call   101857 <kmalloc_a>
  102bda:	83 c4 10             	add    $0x10,%esp
  102bdd:	89 c1                	mov    %eax,%ecx
  102bdf:	8b 45 10             	mov    0x10(%ebp),%eax
  102be2:	8b 55 f4             	mov    -0xc(%ebp),%edx
  102be5:	89 0c 90             	mov    %ecx,(%eax,%edx,4)
  102be8:	8b 45 10             	mov    0x10(%ebp),%eax
  102beb:	8b 55 f4             	mov    -0xc(%ebp),%edx
  102bee:	8b 04 90             	mov    (%eax,%edx,4),%eax
  102bf1:	83 ec 0c             	sub    $0xc,%esp
  102bf4:	50                   	push   %eax
  102bf5:	e8 99 fe ff ff       	call   102a93 <vaddr_to_paddr>
  102bfa:	83 c4 10             	add    $0x10,%esp
  102bfd:	89 45 f0             	mov    %eax,-0x10(%ebp)
  102c00:	8b 45 10             	mov    0x10(%ebp),%eax
  102c03:	8b 55 f4             	mov    -0xc(%ebp),%edx
  102c06:	8b 04 90             	mov    (%eax,%edx,4),%eax
  102c09:	85 c0                	test   %eax,%eax
  102c0b:	75 07                	jne    102c14 <get_page+0xd2>
  102c0d:	b8 00 00 00 00       	mov    $0x0,%eax
  102c12:	eb 6f                	jmp    102c83 <get_page+0x141>
  102c14:	8b 45 10             	mov    0x10(%ebp),%eax
  102c17:	8b 55 f4             	mov    -0xc(%ebp),%edx
  102c1a:	8b 04 90             	mov    (%eax,%edx,4),%eax
  102c1d:	83 ec 04             	sub    $0x4,%esp
  102c20:	68 00 10 00 00       	push   $0x1000
  102c25:	6a 00                	push   $0x0
  102c27:	50                   	push   %eax
  102c28:	e8 a5 ec ff ff       	call   1018d2 <kmemset>
  102c2d:	83 c4 10             	add    $0x10,%esp
  102c30:	8b 55 f0             	mov    -0x10(%ebp),%edx
  102c33:	8b 45 10             	mov    0x10(%ebp),%eax
  102c36:	8b 4d f4             	mov    -0xc(%ebp),%ecx
  102c39:	8b 04 88             	mov    (%eax,%ecx,4),%eax
  102c3c:	83 ec 04             	sub    $0x4,%esp
  102c3f:	52                   	push   %edx
  102c40:	50                   	push   %eax
  102c41:	68 f0 56 10 00       	push   $0x1056f0
  102c46:	e8 fa df ff ff       	call   100c45 <kprintf>
  102c4b:	83 c4 10             	add    $0x10,%esp
  102c4e:	8b 45 f0             	mov    -0x10(%ebp),%eax
  102c51:	83 c8 07             	or     $0x7,%eax
  102c54:	89 c1                	mov    %eax,%ecx
  102c56:	8b 45 10             	mov    0x10(%ebp),%eax
  102c59:	8b 55 f4             	mov    -0xc(%ebp),%edx
  102c5c:	81 c2 00 04 00 00    	add    $0x400,%edx
  102c62:	89 0c 90             	mov    %ecx,(%eax,%edx,4)
  102c65:	8b 45 10             	mov    0x10(%ebp),%eax
  102c68:	8b 55 f4             	mov    -0xc(%ebp),%edx
  102c6b:	8b 04 90             	mov    (%eax,%edx,4),%eax
  102c6e:	8b 55 08             	mov    0x8(%ebp),%edx
  102c71:	81 e2 ff 03 00 00    	and    $0x3ff,%edx
  102c77:	c1 e2 02             	shl    $0x2,%edx
  102c7a:	01 d0                	add    %edx,%eax
  102c7c:	eb 05                	jmp    102c83 <get_page+0x141>
  102c7e:	b8 00 00 00 00       	mov    $0x0,%eax
  102c83:	c9                   	leave
  102c84:	c3                   	ret

00102c85 <do_context_switch>:
  102c85:	55                   	push   %ebp
  102c86:	89 e5                	mov    %esp,%ebp
  102c88:	83 ec 18             	sub    $0x18,%esp
  102c8b:	a1 24 6e 10 00       	mov    0x106e24,%eax
  102c90:	6b c0 4c             	imul   $0x4c,%eax,%eax
  102c93:	05 40 6e 10 00       	add    $0x106e40,%eax
  102c98:	89 45 f4             	mov    %eax,-0xc(%ebp)
  102c9b:	e8 f6 03 00 00       	call   103096 <get_next_ready_task>
  102ca0:	89 45 f0             	mov    %eax,-0x10(%ebp)
  102ca3:	83 7d f0 00          	cmpl   $0x0,-0x10(%ebp)
  102ca7:	0f 84 9c 00 00 00    	je     102d49 <do_context_switch+0xc4>
  102cad:	a1 24 6e 10 00       	mov    0x106e24,%eax
  102cb2:	39 45 f0             	cmp    %eax,-0x10(%ebp)
  102cb5:	0f 84 8e 00 00 00    	je     102d49 <do_context_switch+0xc4>
  102cbb:	8b 45 f0             	mov    -0x10(%ebp),%eax
  102cbe:	6b c0 4c             	imul   $0x4c,%eax,%eax
  102cc1:	05 40 6e 10 00       	add    $0x106e40,%eax
  102cc6:	89 45 ec             	mov    %eax,-0x14(%ebp)
  102cc9:	8b 45 f4             	mov    -0xc(%ebp),%eax
  102ccc:	8b 40 30             	mov    0x30(%eax),%eax
  102ccf:	85 c0                	test   %eax,%eax
  102cd1:	75 0a                	jne    102cdd <do_context_switch+0x58>
  102cd3:	8b 45 f4             	mov    -0xc(%ebp),%eax
  102cd6:	c7 40 30 01 00 00 00 	movl   $0x1,0x30(%eax)
  102cdd:	8b 45 f4             	mov    -0xc(%ebp),%eax
  102ce0:	c7 40 34 00 00 00 00 	movl   $0x0,0x34(%eax)
  102ce7:	8b 45 f4             	mov    -0xc(%ebp),%eax
  102cea:	c7 40 44 00 00 00 00 	movl   $0x0,0x44(%eax)
  102cf1:	8b 45 ec             	mov    -0x14(%ebp),%eax
  102cf4:	c7 40 30 00 00 00 00 	movl   $0x0,0x30(%eax)
  102cfb:	8b 45 f0             	mov    -0x10(%ebp),%eax
  102cfe:	a3 24 6e 10 00       	mov    %eax,0x106e24
  102d03:	8b 45 ec             	mov    -0x14(%ebp),%eax
  102d06:	8b 40 04             	mov    0x4(%eax),%eax
  102d09:	05 00 20 00 00       	add    $0x2000,%eax
  102d0e:	83 ec 08             	sub    $0x8,%esp
  102d11:	50                   	push   %eax
  102d12:	68 18 57 10 00       	push   $0x105718
  102d17:	e8 29 df ff ff       	call   100c45 <kprintf>
  102d1c:	83 c4 10             	add    $0x10,%esp
  102d1f:	8b 45 ec             	mov    -0x14(%ebp),%eax
  102d22:	8b 40 04             	mov    0x4(%eax),%eax
  102d25:	05 00 20 00 00       	add    $0x2000,%eax
  102d2a:	83 ec 0c             	sub    $0xc,%esp
  102d2d:	50                   	push   %eax
  102d2e:	e8 dd e2 ff ff       	call   101010 <update_tss_esp>
  102d33:	83 c4 10             	add    $0x10,%esp
  102d36:	83 ec 08             	sub    $0x8,%esp
  102d39:	ff 75 ec             	push   -0x14(%ebp)
  102d3c:	ff 75 f4             	push   -0xc(%ebp)
  102d3f:	e8 dc d7 ff ff       	call   100520 <context_switch>
  102d44:	83 c4 10             	add    $0x10,%esp
  102d47:	eb 01                	jmp    102d4a <do_context_switch+0xc5>
  102d49:	90                   	nop
  102d4a:	c9                   	leave
  102d4b:	c3                   	ret

00102d4c <schedule_thread_yield>:
  102d4c:	55                   	push   %ebp
  102d4d:	89 e5                	mov    %esp,%ebp
  102d4f:	83 ec 08             	sub    $0x8,%esp
  102d52:	e8 3b e3 ff ff       	call   101092 <disable_interrupt>
  102d57:	e8 29 ff ff ff       	call   102c85 <do_context_switch>
  102d5c:	90                   	nop
  102d5d:	c9                   	leave
  102d5e:	c3                   	ret

00102d5f <set_lock>:
  102d5f:	55                   	push   %ebp
  102d60:	89 e5                	mov    %esp,%ebp
  102d62:	83 ec 08             	sub    $0x8,%esp
  102d65:	a1 08 6e 10 00       	mov    0x106e08,%eax
  102d6a:	85 c0                	test   %eax,%eax
  102d6c:	74 1c                	je     102d8a <set_lock+0x2b>
  102d6e:	c7 05 08 6e 10 00 00 	movl   $0x0,0x106e08
  102d75:	00 00 00 
  102d78:	83 ec 0c             	sub    $0xc,%esp
  102d7b:	68 00 6e 10 00       	push   $0x106e00
  102d80:	e8 9a 07 00 00       	call   10351f <yieldlock_unlock>
  102d85:	83 c4 10             	add    $0x10,%esp
  102d88:	eb 0a                	jmp    102d94 <set_lock+0x35>
  102d8a:	c7 05 08 6e 10 00 01 	movl   $0x1,0x106e08
  102d91:	00 00 00 
  102d94:	a1 08 6e 10 00       	mov    0x106e08,%eax
  102d99:	83 ec 08             	sub    $0x8,%esp
  102d9c:	50                   	push   %eax
  102d9d:	68 2c 57 10 00       	push   $0x10572c
  102da2:	e8 9e de ff ff       	call   100c45 <kprintf>
  102da7:	83 c4 10             	add    $0x10,%esp
  102daa:	90                   	nop
  102dab:	c9                   	leave
  102dac:	c3                   	ret

00102dad <first_thread>:
  102dad:	55                   	push   %ebp
  102dae:	89 e5                	mov    %esp,%ebp
  102db0:	83 ec 18             	sub    $0x18,%esp
  102db3:	c7 45 f4 00 00 00 00 	movl   $0x0,-0xc(%ebp)
  102dba:	a1 04 6e 10 00       	mov    0x106e04,%eax
  102dbf:	3d fe ff ff 00       	cmp    $0xfffffe,%eax
  102dc4:	7f 72                	jg     102e38 <first_thread+0x8b>
  102dc6:	a1 08 6e 10 00       	mov    0x106e08,%eax
  102dcb:	85 c0                	test   %eax,%eax
  102dcd:	74 10                	je     102ddf <first_thread+0x32>
  102dcf:	83 ec 0c             	sub    $0xc,%esp
  102dd2:	68 00 6e 10 00       	push   $0x106e00
  102dd7:	e8 fc 06 00 00       	call   1034d8 <yieldlock_lock>
  102ddc:	83 c4 10             	add    $0x10,%esp
  102ddf:	a1 04 6e 10 00       	mov    0x106e04,%eax
  102de4:	89 45 f0             	mov    %eax,-0x10(%ebp)
  102de7:	f4                   	hlt
  102de8:	a1 04 6e 10 00       	mov    0x106e04,%eax
  102ded:	83 c0 01             	add    $0x1,%eax
  102df0:	a3 04 6e 10 00       	mov    %eax,0x106e04
  102df5:	8b 45 f0             	mov    -0x10(%ebp),%eax
  102df8:	8d 50 01             	lea    0x1(%eax),%edx
  102dfb:	a1 04 6e 10 00       	mov    0x106e04,%eax
  102e00:	39 c2                	cmp    %eax,%edx
  102e02:	74 19                	je     102e1d <first_thread+0x70>
  102e04:	a1 04 6e 10 00       	mov    0x106e04,%eax
  102e09:	83 ec 04             	sub    $0x4,%esp
  102e0c:	50                   	push   %eax
  102e0d:	ff 75 f0             	push   -0x10(%ebp)
  102e10:	68 38 57 10 00       	push   $0x105738
  102e15:	e8 2b de ff ff       	call   100c45 <kprintf>
  102e1a:	83 c4 10             	add    $0x10,%esp
  102e1d:	a1 08 6e 10 00       	mov    0x106e08,%eax
  102e22:	85 c0                	test   %eax,%eax
  102e24:	74 94                	je     102dba <first_thread+0xd>
  102e26:	83 ec 0c             	sub    $0xc,%esp
  102e29:	68 00 6e 10 00       	push   $0x106e00
  102e2e:	e8 ec 06 00 00       	call   10351f <yieldlock_unlock>
  102e33:	83 c4 10             	add    $0x10,%esp
  102e36:	eb 82                	jmp    102dba <first_thread+0xd>
  102e38:	f4                   	hlt
  102e39:	e9 7c ff ff ff       	jmp    102dba <first_thread+0xd>

00102e3e <second_thread>:
  102e3e:	55                   	push   %ebp
  102e3f:	89 e5                	mov    %esp,%ebp
  102e41:	83 ec 18             	sub    $0x18,%esp
  102e44:	c7 45 f4 00 00 00 00 	movl   $0x0,-0xc(%ebp)
  102e4b:	a1 04 6e 10 00       	mov    0x106e04,%eax
  102e50:	85 c0                	test   %eax,%eax
  102e52:	7e 70                	jle    102ec4 <second_thread+0x86>
  102e54:	a1 08 6e 10 00       	mov    0x106e08,%eax
  102e59:	85 c0                	test   %eax,%eax
  102e5b:	74 10                	je     102e6d <second_thread+0x2f>
  102e5d:	83 ec 0c             	sub    $0xc,%esp
  102e60:	68 00 6e 10 00       	push   $0x106e00
  102e65:	e8 6e 06 00 00       	call   1034d8 <yieldlock_lock>
  102e6a:	83 c4 10             	add    $0x10,%esp
  102e6d:	a1 04 6e 10 00       	mov    0x106e04,%eax
  102e72:	89 45 f0             	mov    %eax,-0x10(%ebp)
  102e75:	f4                   	hlt
  102e76:	a1 04 6e 10 00       	mov    0x106e04,%eax
  102e7b:	83 e8 01             	sub    $0x1,%eax
  102e7e:	a3 04 6e 10 00       	mov    %eax,0x106e04
  102e83:	a1 04 6e 10 00       	mov    0x106e04,%eax
  102e88:	83 c0 01             	add    $0x1,%eax
  102e8b:	39 45 f0             	cmp    %eax,-0x10(%ebp)
  102e8e:	74 19                	je     102ea9 <second_thread+0x6b>
  102e90:	a1 04 6e 10 00       	mov    0x106e04,%eax
  102e95:	83 ec 04             	sub    $0x4,%esp
  102e98:	50                   	push   %eax
  102e99:	ff 75 f0             	push   -0x10(%ebp)
  102e9c:	68 6c 57 10 00       	push   $0x10576c
  102ea1:	e8 9f dd ff ff       	call   100c45 <kprintf>
  102ea6:	83 c4 10             	add    $0x10,%esp
  102ea9:	a1 08 6e 10 00       	mov    0x106e08,%eax
  102eae:	85 c0                	test   %eax,%eax
  102eb0:	74 99                	je     102e4b <second_thread+0xd>
  102eb2:	83 ec 0c             	sub    $0xc,%esp
  102eb5:	68 00 6e 10 00       	push   $0x106e00
  102eba:	e8 60 06 00 00       	call   10351f <yieldlock_unlock>
  102ebf:	83 c4 10             	add    $0x10,%esp
  102ec2:	eb 87                	jmp    102e4b <second_thread+0xd>
  102ec4:	f4                   	hlt
  102ec5:	eb 84                	jmp    102e4b <second_thread+0xd>

00102ec7 <start_sync_test>:
  102ec7:	55                   	push   %ebp
  102ec8:	89 e5                	mov    %esp,%ebp
  102eca:	83 ec 18             	sub    $0x18,%esp
  102ecd:	a1 0c 6e 10 00       	mov    0x106e0c,%eax
  102ed2:	85 c0                	test   %eax,%eax
  102ed4:	75 78                	jne    102f4e <start_sync_test+0x87>
  102ed6:	c7 05 0c 6e 10 00 01 	movl   $0x1,0x106e0c
  102edd:	00 00 00 
  102ee0:	83 ec 0c             	sub    $0xc,%esp
  102ee3:	68 00 6e 10 00       	push   $0x106e00
  102ee8:	e8 dc 05 00 00       	call   1034c9 <yieldlock_init>
  102eed:	83 c4 10             	add    $0x10,%esp
  102ef0:	6a 00                	push   $0x0
  102ef2:	6a 0a                	push   $0xa
  102ef4:	68 ad 2d 10 00       	push   $0x102dad
  102ef9:	68 a0 57 10 00       	push   $0x1057a0
  102efe:	e8 70 02 00 00       	call   103173 <create_thread>
  102f03:	83 c4 10             	add    $0x10,%esp
  102f06:	89 45 f4             	mov    %eax,-0xc(%ebp)
  102f09:	6a 00                	push   $0x0
  102f0b:	6a 0a                	push   $0xa
  102f0d:	68 3e 2e 10 00       	push   $0x102e3e
  102f12:	68 a0 57 10 00       	push   $0x1057a0
  102f17:	e8 57 02 00 00       	call   103173 <create_thread>
  102f1c:	83 c4 10             	add    $0x10,%esp
  102f1f:	89 45 f0             	mov    %eax,-0x10(%ebp)
  102f22:	8b 45 f4             	mov    -0xc(%ebp),%eax
  102f25:	c7 40 30 01 00 00 00 	movl   $0x1,0x30(%eax)
  102f2c:	8b 45 f0             	mov    -0x10(%ebp),%eax
  102f2f:	c7 40 30 01 00 00 00 	movl   $0x1,0x30(%eax)
  102f36:	8b 45 f4             	mov    -0xc(%ebp),%eax
  102f39:	8b 00                	mov    (%eax),%eax
  102f3b:	83 ec 08             	sub    $0x8,%esp
  102f3e:	50                   	push   %eax
  102f3f:	68 a5 57 10 00       	push   $0x1057a5
  102f44:	e8 fc dc ff ff       	call   100c45 <kprintf>
  102f49:	83 c4 10             	add    $0x10,%esp
  102f4c:	eb 01                	jmp    102f4f <start_sync_test+0x88>
  102f4e:	90                   	nop
  102f4f:	c9                   	leave
  102f50:	c3                   	ret

00102f51 <kernel_main_thread>:
  102f51:	55                   	push   %ebp
  102f52:	89 e5                	mov    %esp,%ebp
  102f54:	53                   	push   %ebx
  102f55:	83 ec 14             	sub    $0x14,%esp
  102f58:	c7 45 f4 00 00 00 00 	movl   $0x0,-0xc(%ebp)
  102f5f:	83 45 f4 01          	addl   $0x1,-0xc(%ebp)
  102f63:	8b 4d f4             	mov    -0xc(%ebp),%ecx
  102f66:	ba 1f 85 eb 51       	mov    $0x51eb851f,%edx
  102f6b:	89 c8                	mov    %ecx,%eax
  102f6d:	f7 ea                	imul   %edx
  102f6f:	89 d0                	mov    %edx,%eax
  102f71:	c1 f8 05             	sar    $0x5,%eax
  102f74:	89 ca                	mov    %ecx,%edx
  102f76:	c1 fa 1f             	sar    $0x1f,%edx
  102f79:	29 d0                	sub    %edx,%eax
  102f7b:	6b d0 64             	imul   $0x64,%eax,%edx
  102f7e:	89 c8                	mov    %ecx,%eax
  102f80:	29 d0                	sub    %edx,%eax
  102f82:	83 f8 63             	cmp    $0x63,%eax
  102f85:	75 42                	jne    102fc9 <kernel_main_thread+0x78>
  102f87:	83 ec 0c             	sub    $0xc,%esp
  102f8a:	68 b8 57 10 00       	push   $0x1057b8
  102f8f:	e8 b1 dc ff ff       	call   100c45 <kprintf>
  102f94:	83 c4 10             	add    $0x10,%esp
  102f97:	8b 1d 54 6f 10 00    	mov    0x106f54,%ebx
  102f9d:	8b 0d 08 6f 10 00    	mov    0x106f08,%ecx
  102fa3:	8b 15 bc 6e 10 00    	mov    0x106ebc,%edx
  102fa9:	a1 70 6e 10 00       	mov    0x106e70,%eax
  102fae:	83 ec 0c             	sub    $0xc,%esp
  102fb1:	53                   	push   %ebx
  102fb2:	51                   	push   %ecx
  102fb3:	52                   	push   %edx
  102fb4:	50                   	push   %eax
  102fb5:	68 c2 57 10 00       	push   $0x1057c2
  102fba:	e8 86 dc ff ff       	call   100c45 <kprintf>
  102fbf:	83 c4 20             	add    $0x20,%esp
  102fc2:	c7 45 f4 00 00 00 00 	movl   $0x0,-0xc(%ebp)
  102fc9:	f4                   	hlt
  102fca:	eb 93                	jmp    102f5f <kernel_main_thread+0xe>

00102fcc <user_func>:
  102fcc:	55                   	push   %ebp
  102fcd:	89 e5                	mov    %esp,%ebp
  102fcf:	83 ec 08             	sub    $0x8,%esp
  102fd2:	54                   	push   %esp
  102fd3:	e8 b5 d7 ff ff       	call   10078d <kprint_hex>
  102fd8:	e8 b5 dd ff ff       	call   100d92 <kprintln>
  102fdd:	5c                   	pop    %esp
  102fde:	83 ec 0c             	sub    $0xc,%esp
  102fe1:	68 db 57 10 00       	push   $0x1057db
  102fe6:	e8 5a dc ff ff       	call   100c45 <kprintf>
  102feb:	83 c4 10             	add    $0x10,%esp
  102fee:	e8 35 d0 ff ff       	call   100028 <example_func>
  102ff3:	e8 30 d0 ff ff       	call   100028 <example_func>
  102ff8:	e8 2b d0 ff ff       	call   100028 <example_func>
  102ffd:	e8 26 d0 ff ff       	call   100028 <example_func>
  103002:	e8 21 d0 ff ff       	call   100028 <example_func>
  103007:	54                   	push   %esp
  103008:	e8 80 d7 ff ff       	call   10078d <kprint_hex>
  10300d:	e8 80 dd ff ff       	call   100d92 <kprintln>
  103012:	5c                   	pop    %esp
  103013:	90                   	nop
  103014:	c9                   	leave
  103015:	c3                   	ret

00103016 <init_task>:
  103016:	55                   	push   %ebp
  103017:	89 e5                	mov    %esp,%ebp
  103019:	83 ec 18             	sub    $0x18,%esp
  10301c:	c7 05 24 6e 10 00 00 	movl   $0x0,0x106e24
  103023:	00 00 00 
  103026:	c7 45 f4 00 00 00 00 	movl   $0x0,-0xc(%ebp)
  10302d:	eb 26                	jmp    103055 <init_task+0x3f>
  10302f:	8b 45 f4             	mov    -0xc(%ebp),%eax
  103032:	8b 55 f4             	mov    -0xc(%ebp),%edx
  103035:	6b d2 4c             	imul   $0x4c,%edx,%edx
  103038:	81 c2 48 6e 10 00    	add    $0x106e48,%edx
  10303e:	89 02                	mov    %eax,(%edx)
  103040:	8b 45 f4             	mov    -0xc(%ebp),%eax
  103043:	6b c0 4c             	imul   $0x4c,%eax,%eax
  103046:	05 70 6e 10 00       	add    $0x106e70,%eax
  10304b:	c7 00 05 00 00 00    	movl   $0x5,(%eax)
  103051:	83 45 f4 01          	addl   $0x1,-0xc(%ebp)
  103055:	83 7d f4 0f          	cmpl   $0xf,-0xc(%ebp)
  103059:	7e d4                	jle    10302f <init_task+0x19>
  10305b:	c7 05 20 6e 10 00 00 	movl   $0x0,0x106e20
  103062:	00 00 00 
  103065:	83 ec 08             	sub    $0x8,%esp
  103068:	68 cc 2f 10 00       	push   $0x102fcc
  10306d:	68 e7 57 10 00       	push   $0x1057e7
  103072:	e8 c0 03 00 00       	call   103437 <create_user_thread>
  103077:	83 c4 10             	add    $0x10,%esp
  10307a:	89 45 f0             	mov    %eax,-0x10(%ebp)
  10307d:	8b 45 f0             	mov    -0x10(%ebp),%eax
  103080:	c7 40 30 01 00 00 00 	movl   $0x1,0x30(%eax)
  103087:	8b 45 f0             	mov    -0x10(%ebp),%eax
  10308a:	8b 00                	mov    (%eax),%eax
  10308c:	89 c4                	mov    %eax,%esp
  10308e:	e9 a0 d4 ff ff       	jmp    100533 <resume_thread>
  103093:	90                   	nop
  103094:	c9                   	leave
  103095:	c3                   	ret

00103096 <get_next_ready_task>:
  103096:	55                   	push   %ebp
  103097:	89 e5                	mov    %esp,%ebp
  103099:	83 ec 10             	sub    $0x10,%esp
  10309c:	c7 45 fc 01 00 00 00 	movl   $0x1,-0x4(%ebp)
  1030a3:	eb 22                	jmp    1030c7 <get_next_ready_task+0x31>
  1030a5:	8b 45 fc             	mov    -0x4(%ebp),%eax
  1030a8:	6b c0 4c             	imul   $0x4c,%eax,%eax
  1030ab:	05 40 6e 10 00       	add    $0x106e40,%eax
  1030b0:	89 45 f8             	mov    %eax,-0x8(%ebp)
  1030b3:	8b 45 f8             	mov    -0x8(%ebp),%eax
  1030b6:	8b 40 30             	mov    0x30(%eax),%eax
  1030b9:	83 f8 01             	cmp    $0x1,%eax
  1030bc:	75 05                	jne    1030c3 <get_next_ready_task+0x2d>
  1030be:	8b 45 fc             	mov    -0x4(%ebp),%eax
  1030c1:	eb 0f                	jmp    1030d2 <get_next_ready_task+0x3c>
  1030c3:	83 45 fc 01          	addl   $0x1,-0x4(%ebp)
  1030c7:	83 7d fc 0f          	cmpl   $0xf,-0x4(%ebp)
  1030cb:	7e d8                	jle    1030a5 <get_next_ready_task+0xf>
  1030cd:	b8 00 00 00 00       	mov    $0x0,%eax
  1030d2:	c9                   	leave
  1030d3:	c3                   	ret

001030d4 <schedule_thread_exit>:
  1030d4:	55                   	push   %ebp
  1030d5:	89 e5                	mov    %esp,%ebp
  1030d7:	90                   	nop
  1030d8:	5d                   	pop    %ebp
  1030d9:	c3                   	ret

001030da <kernel_thread>:
  1030da:	55                   	push   %ebp
  1030db:	89 e5                	mov    %esp,%ebp
  1030dd:	83 ec 08             	sub    $0x8,%esp
  1030e0:	8b 45 08             	mov    0x8(%ebp),%eax
  1030e3:	ff d0                	call   *%eax
  1030e5:	e8 ea ff ff ff       	call   1030d4 <schedule_thread_exit>
  1030ea:	90                   	nop
  1030eb:	c9                   	leave
  1030ec:	c3                   	ret

001030ed <switch_to_user_mode2>:
  1030ed:	55                   	push   %ebp
  1030ee:	89 e5                	mov    %esp,%ebp
  1030f0:	83 ec 08             	sub    $0x8,%esp
  1030f3:	8b 15 08 61 10 00    	mov    0x106108,%edx
  1030f9:	a1 04 61 10 00       	mov    0x106104,%eax
  1030fe:	83 ec 04             	sub    $0x4,%esp
  103101:	52                   	push   %edx
  103102:	50                   	push   %eax
  103103:	68 ec 57 10 00       	push   $0x1057ec
  103108:	e8 38 db ff ff       	call   100c45 <kprintf>
  10310d:	83 c4 10             	add    $0x10,%esp
  103110:	fa                   	cli
  103111:	66 b8 2b 00          	mov    $0x2b,%ax
  103115:	8e d8                	mov    %eax,%ds
  103117:	8e c0                	mov    %eax,%es
  103119:	8e e0                	mov    %eax,%fs
  10311b:	8e e8                	mov    %eax,%gs
  10311d:	89 e0                	mov    %esp,%eax
  10311f:	6a 2b                	push   $0x2b
  103121:	50                   	push   %eax
  103122:	9c                   	pushf
  103123:	6a 23                	push   $0x23
  103125:	68 2b 31 10 00       	push   $0x10312b
  10312a:	cf                   	iret
  10312b:	90                   	nop
  10312c:	c9                   	leave
  10312d:	c3                   	ret

0010312e <return_usermode>:
  10312e:	55                   	push   %ebp
  10312f:	89 e5                	mov    %esp,%ebp
  103131:	83 ec 18             	sub    $0x18,%esp
  103134:	83 ec 0c             	sub    $0xc,%esp
  103137:	68 f8 57 10 00       	push   $0x1057f8
  10313c:	e8 04 db ff ff       	call   100c45 <kprintf>
  103141:	83 c4 10             	add    $0x10,%esp
  103144:	c7 45 f4 00 00 00 00 	movl   $0x0,-0xc(%ebp)
  10314b:	e8 20 d4 ff ff       	call   100570 <get_ebp>
  103150:	89 45 f4             	mov    %eax,-0xc(%ebp)
  103153:	83 ec 08             	sub    $0x8,%esp
  103156:	ff 75 f4             	push   -0xc(%ebp)
  103159:	68 1c 58 10 00       	push   $0x10581c
  10315e:	e8 e2 da ff ff       	call   100c45 <kprintf>
  103163:	83 c4 10             	add    $0x10,%esp
  103166:	e8 d1 d3 ff ff       	call   10053c <switch_to_user_mode>
  10316b:	e8 5c fe ff ff       	call   102fcc <user_func>
  103170:	90                   	nop
  103171:	c9                   	leave
  103172:	c3                   	ret

00103173 <create_thread>:
  103173:	55                   	push   %ebp
  103174:	89 e5                	mov    %esp,%ebp
  103176:	83 ec 38             	sub    $0x38,%esp
  103179:	8b 45 14             	mov    0x14(%ebp),%eax
  10317c:	88 45 d4             	mov    %al,-0x2c(%ebp)
  10317f:	a1 20 6e 10 00       	mov    0x106e20,%eax
  103184:	8d 50 01             	lea    0x1(%eax),%edx
  103187:	89 15 20 6e 10 00    	mov    %edx,0x106e20
  10318d:	89 45 f4             	mov    %eax,-0xc(%ebp)
  103190:	8b 45 f4             	mov    -0xc(%ebp),%eax
  103193:	6b c0 4c             	imul   $0x4c,%eax,%eax
  103196:	05 40 6e 10 00       	add    $0x106e40,%eax
  10319b:	89 45 f0             	mov    %eax,-0x10(%ebp)
  10319e:	83 ec 04             	sub    $0x4,%esp
  1031a1:	6a 4c                	push   $0x4c
  1031a3:	6a 00                	push   $0x0
  1031a5:	ff 75 f0             	push   -0x10(%ebp)
  1031a8:	e8 25 e7 ff ff       	call   1018d2 <kmemset>
  1031ad:	83 c4 10             	add    $0x10,%esp
  1031b0:	8b 45 f0             	mov    -0x10(%ebp),%eax
  1031b3:	8b 55 f4             	mov    -0xc(%ebp),%edx
  1031b6:	89 50 08             	mov    %edx,0x8(%eax)
  1031b9:	83 7d 08 00          	cmpl   $0x0,0x8(%ebp)
  1031bd:	74 19                	je     1031d8 <create_thread+0x65>
  1031bf:	8b 45 f0             	mov    -0x10(%ebp),%eax
  1031c2:	83 c0 0c             	add    $0xc,%eax
  1031c5:	83 ec 04             	sub    $0x4,%esp
  1031c8:	6a 04                	push   $0x4
  1031ca:	ff 75 08             	push   0x8(%ebp)
  1031cd:	50                   	push   %eax
  1031ce:	e8 cb e6 ff ff       	call   10189e <kmemcpy>
  1031d3:	83 c4 10             	add    $0x10,%esp
  1031d6:	eb 19                	jmp    1031f1 <create_thread+0x7e>
  1031d8:	8b 45 f0             	mov    -0x10(%ebp),%eax
  1031db:	83 c0 0c             	add    $0xc,%eax
  1031de:	83 ec 04             	sub    $0x4,%esp
  1031e1:	6a 04                	push   $0x4
  1031e3:	68 34 58 10 00       	push   $0x105834
  1031e8:	50                   	push   %eax
  1031e9:	e8 b0 e6 ff ff       	call   10189e <kmemcpy>
  1031ee:	83 c4 10             	add    $0x10,%esp
  1031f1:	8b 45 f0             	mov    -0x10(%ebp),%eax
  1031f4:	c7 40 30 05 00 00 00 	movl   $0x5,0x30(%eax)
  1031fb:	8b 45 f0             	mov    -0x10(%ebp),%eax
  1031fe:	c7 40 34 00 00 00 00 	movl   $0x0,0x34(%eax)
  103205:	8b 45 10             	mov    0x10(%ebp),%eax
  103208:	89 c2                	mov    %eax,%edx
  10320a:	8b 45 f0             	mov    -0x10(%ebp),%eax
  10320d:	88 50 2c             	mov    %dl,0x2c(%eax)
  103210:	8b 45 f0             	mov    -0x10(%ebp),%eax
  103213:	c7 40 40 ff ff ff ff 	movl   $0xffffffff,0x40(%eax)
  10321a:	83 ec 08             	sub    $0x8,%esp
  10321d:	6a 01                	push   $0x1
  10321f:	68 00 20 00 00       	push   $0x2000
  103224:	e8 2e e6 ff ff       	call   101857 <kmalloc_a>
  103229:	83 c4 10             	add    $0x10,%esp
  10322c:	89 45 ec             	mov    %eax,-0x14(%ebp)
  10322f:	8b 45 ec             	mov    -0x14(%ebp),%eax
  103232:	83 ec 04             	sub    $0x4,%esp
  103235:	68 00 20 00 00       	push   $0x2000
  10323a:	6a 00                	push   $0x0
  10323c:	50                   	push   %eax
  10323d:	e8 90 e6 ff ff       	call   1018d2 <kmemset>
  103242:	83 c4 10             	add    $0x10,%esp
  103245:	8b 45 f0             	mov    -0x10(%ebp),%eax
  103248:	8b 55 ec             	mov    -0x14(%ebp),%edx
  10324b:	89 50 04             	mov    %edx,0x4(%eax)
  10324e:	8b 45 ec             	mov    -0x14(%ebp),%eax
  103251:	8d 90 98 1f 00 00    	lea    0x1f98(%eax),%edx
  103257:	8b 45 f0             	mov    -0x10(%ebp),%eax
  10325a:	89 10                	mov    %edx,(%eax)
  10325c:	8b 45 f0             	mov    -0x10(%ebp),%eax
  10325f:	8b 00                	mov    (%eax),%eax
  103261:	89 45 e8             	mov    %eax,-0x18(%ebp)
  103264:	8b 45 e8             	mov    -0x18(%ebp),%eax
  103267:	c7 00 00 00 00 00    	movl   $0x0,(%eax)
  10326d:	8b 45 e8             	mov    -0x18(%ebp),%eax
  103270:	c7 40 04 00 00 00 00 	movl   $0x0,0x4(%eax)
  103277:	8b 45 e8             	mov    -0x18(%ebp),%eax
  10327a:	c7 40 08 00 00 00 00 	movl   $0x0,0x8(%eax)
  103281:	8b 45 e8             	mov    -0x18(%ebp),%eax
  103284:	c7 40 0c 00 00 00 00 	movl   $0x0,0xc(%eax)
  10328b:	8b 45 e8             	mov    -0x18(%ebp),%eax
  10328e:	c7 40 10 00 00 00 00 	movl   $0x0,0x10(%eax)
  103295:	8b 45 e8             	mov    -0x18(%ebp),%eax
  103298:	c7 40 14 00 00 00 00 	movl   $0x0,0x14(%eax)
  10329f:	8b 45 e8             	mov    -0x18(%ebp),%eax
  1032a2:	c7 40 18 00 00 00 00 	movl   $0x0,0x18(%eax)
  1032a9:	ba da 30 10 00       	mov    $0x1030da,%edx
  1032ae:	8b 45 e8             	mov    -0x18(%ebp),%eax
  1032b1:	89 50 1c             	mov    %edx,0x1c(%eax)
  1032b4:	8b 45 e8             	mov    -0x18(%ebp),%eax
  1032b7:	8b 55 0c             	mov    0xc(%ebp),%edx
  1032ba:	89 50 24             	mov    %edx,0x24(%eax)
  1032bd:	80 7d d4 00          	cmpb   $0x0,-0x2c(%ebp)
  1032c1:	0f 84 96 00 00 00    	je     10335d <create_thread+0x1ea>
  1032c7:	ba 3c 05 10 00       	mov    $0x10053c,%edx
  1032cc:	8b 45 e8             	mov    -0x18(%ebp),%eax
  1032cf:	89 50 1c             	mov    %edx,0x1c(%eax)
  1032d2:	8b 45 f0             	mov    -0x10(%ebp),%eax
  1032d5:	8b 00                	mov    (%eax),%eax
  1032d7:	83 c0 28             	add    $0x28,%eax
  1032da:	89 45 e4             	mov    %eax,-0x1c(%ebp)
  1032dd:	8b 45 e4             	mov    -0x1c(%ebp),%eax
  1032e0:	c7 00 2b 00 00 00    	movl   $0x2b,(%eax)
  1032e6:	8b 45 e4             	mov    -0x1c(%ebp),%eax
  1032e9:	c7 40 04 00 00 00 00 	movl   $0x0,0x4(%eax)
  1032f0:	8b 45 e4             	mov    -0x1c(%ebp),%eax
  1032f3:	c7 40 08 00 00 00 00 	movl   $0x0,0x8(%eax)
  1032fa:	8b 45 e4             	mov    -0x1c(%ebp),%eax
  1032fd:	c7 40 0c 00 00 00 00 	movl   $0x0,0xc(%eax)
  103304:	8b 45 e4             	mov    -0x1c(%ebp),%eax
  103307:	c7 40 10 00 00 00 00 	movl   $0x0,0x10(%eax)
  10330e:	8b 45 e4             	mov    -0x1c(%ebp),%eax
  103311:	c7 40 14 00 00 00 00 	movl   $0x0,0x14(%eax)
  103318:	8b 45 e4             	mov    -0x1c(%ebp),%eax
  10331b:	c7 40 18 00 00 00 00 	movl   $0x0,0x18(%eax)
  103322:	8b 45 e4             	mov    -0x1c(%ebp),%eax
  103325:	c7 40 1c 00 00 00 00 	movl   $0x0,0x1c(%eax)
  10332c:	8b 45 e4             	mov    -0x1c(%ebp),%eax
  10332f:	c7 40 20 00 00 00 00 	movl   $0x0,0x20(%eax)
  103336:	8b 55 0c             	mov    0xc(%ebp),%edx
  103339:	8b 45 e4             	mov    -0x1c(%ebp),%eax
  10333c:	89 50 2c             	mov    %edx,0x2c(%eax)
  10333f:	8b 45 e4             	mov    -0x1c(%ebp),%eax
  103342:	c7 40 30 23 00 00 00 	movl   $0x23,0x30(%eax)
  103349:	8b 45 e4             	mov    -0x1c(%ebp),%eax
  10334c:	c7 40 34 02 02 00 00 	movl   $0x202,0x34(%eax)
  103353:	8b 45 e4             	mov    -0x1c(%ebp),%eax
  103356:	c7 40 3c 2b 00 00 00 	movl   $0x2b,0x3c(%eax)
  10335d:	8b 45 f0             	mov    -0x10(%ebp),%eax
  103360:	c9                   	leave
  103361:	c3                   	ret

00103362 <destroy_thread>:
  103362:	55                   	push   %ebp
  103363:	89 e5                	mov    %esp,%ebp
  103365:	83 ec 08             	sub    $0x8,%esp
  103368:	8b 45 08             	mov    0x8(%ebp),%eax
  10336b:	8b 40 04             	mov    0x4(%eax),%eax
  10336e:	83 ec 0c             	sub    $0xc,%esp
  103371:	50                   	push   %eax
  103372:	e8 10 e5 ff ff       	call   101887 <kfree>
  103377:	83 c4 10             	add    $0x10,%esp
  10337a:	90                   	nop
  10337b:	c9                   	leave
  10337c:	c3                   	ret

0010337d <create_kernel_thread>:
  10337d:	55                   	push   %ebp
  10337e:	89 e5                	mov    %esp,%ebp
  103380:	83 ec 08             	sub    $0x8,%esp
  103383:	8b 45 0c             	mov    0xc(%ebp),%eax
  103386:	6a 00                	push   $0x0
  103388:	6a 0a                	push   $0xa
  10338a:	50                   	push   %eax
  10338b:	ff 75 08             	push   0x8(%ebp)
  10338e:	e8 e0 fd ff ff       	call   103173 <create_thread>
  103393:	83 c4 10             	add    $0x10,%esp
  103396:	c9                   	leave
  103397:	c3                   	ret

00103398 <thread_exit>:
  103398:	55                   	push   %ebp
  103399:	89 e5                	mov    %esp,%ebp
  10339b:	83 ec 08             	sub    $0x8,%esp
  10339e:	83 ec 0c             	sub    $0xc,%esp
  1033a1:	68 39 58 10 00       	push   $0x105839
  1033a6:	e8 9a d8 ff ff       	call   100c45 <kprintf>
  1033ab:	83 c4 10             	add    $0x10,%esp
  1033ae:	a1 24 6e 10 00       	mov    0x106e24,%eax
  1033b3:	6b c0 4c             	imul   $0x4c,%eax,%eax
  1033b6:	05 70 6e 10 00       	add    $0x106e70,%eax
  1033bb:	c7 00 05 00 00 00    	movl   $0x5,(%eax)
  1033c1:	e8 bf f8 ff ff       	call   102c85 <do_context_switch>
  1033c6:	90                   	nop
  1033c7:	c9                   	leave
  1033c8:	c3                   	ret

001033c9 <prepare_user_stack>:
  1033c9:	55                   	push   %ebp
  1033ca:	89 e5                	mov    %esp,%ebp
  1033cc:	83 ec 18             	sub    $0x18,%esp
  1033cf:	c7 45 f4 00 00 00 00 	movl   $0x0,-0xc(%ebp)
  1033d6:	83 ec 08             	sub    $0x8,%esp
  1033d9:	ff 75 0c             	push   0xc(%ebp)
  1033dc:	68 46 58 10 00       	push   $0x105846
  1033e1:	e8 5f d8 ff ff       	call   100c45 <kprintf>
  1033e6:	83 c4 10             	add    $0x10,%esp
  1033e9:	83 6d 0c 08          	subl   $0x8,0xc(%ebp)
  1033ed:	8b 45 0c             	mov    0xc(%ebp),%eax
  1033f0:	8b 55 18             	mov    0x18(%ebp),%edx
  1033f3:	89 10                	mov    %edx,(%eax)
  1033f5:	83 ec 04             	sub    $0x4,%esp
  1033f8:	ff 75 18             	push   0x18(%ebp)
  1033fb:	ff 75 0c             	push   0xc(%ebp)
  1033fe:	68 5c 58 10 00       	push   $0x10585c
  103403:	e8 3d d8 ff ff       	call   100c45 <kprintf>
  103408:	83 c4 10             	add    $0x10,%esp
  10340b:	8b 45 08             	mov    0x8(%ebp),%eax
  10340e:	8b 00                	mov    (%eax),%eax
  103410:	83 c0 28             	add    $0x28,%eax
  103413:	89 45 f0             	mov    %eax,-0x10(%ebp)
  103416:	83 ec 08             	sub    $0x8,%esp
  103419:	ff 75 0c             	push   0xc(%ebp)
  10341c:	68 85 58 10 00       	push   $0x105885
  103421:	e8 1f d8 ff ff       	call   100c45 <kprintf>
  103426:	83 c4 10             	add    $0x10,%esp
  103429:	8b 45 f0             	mov    -0x10(%ebp),%eax
  10342c:	8b 55 0c             	mov    0xc(%ebp),%edx
  10342f:	89 50 38             	mov    %edx,0x38(%eax)
  103432:	8b 45 0c             	mov    0xc(%ebp),%eax
  103435:	c9                   	leave
  103436:	c3                   	ret

00103437 <create_user_thread>:
  103437:	55                   	push   %ebp
  103438:	89 e5                	mov    %esp,%ebp
  10343a:	83 ec 18             	sub    $0x18,%esp
  10343d:	8b 45 0c             	mov    0xc(%ebp),%eax
  103440:	6a 01                	push   $0x1
  103442:	6a 0a                	push   $0xa
  103444:	50                   	push   %eax
  103445:	ff 75 08             	push   0x8(%ebp)
  103448:	e8 26 fd ff ff       	call   103173 <create_thread>
  10344d:	83 c4 10             	add    $0x10,%esp
  103450:	89 45 f4             	mov    %eax,-0xc(%ebp)
  103453:	c7 45 f0 01 00 00 00 	movl   $0x1,-0x10(%ebp)
  10345a:	8b 45 f4             	mov    -0xc(%ebp),%eax
  10345d:	8b 55 f0             	mov    -0x10(%ebp),%edx
  103460:	89 50 40             	mov    %edx,0x40(%eax)
  103463:	8b 45 f0             	mov    -0x10(%ebp),%eax
  103466:	c1 e0 10             	shl    $0x10,%eax
  103469:	89 c2                	mov    %eax,%edx
  10346b:	b8 00 00 00 b0       	mov    $0xb0000000,%eax
  103470:	29 d0                	sub    %edx,%eax
  103472:	89 45 ec             	mov    %eax,-0x14(%ebp)
  103475:	8b 45 ec             	mov    -0x14(%ebp),%eax
  103478:	2d 00 10 00 00       	sub    $0x1000,%eax
  10347d:	83 ec 04             	sub    $0x4,%esp
  103480:	ff 75 ec             	push   -0x14(%ebp)
  103483:	50                   	push   %eax
  103484:	68 98 58 10 00       	push   $0x105898
  103489:	e8 b7 d7 ff ff       	call   100c45 <kprintf>
  10348e:	83 c4 10             	add    $0x10,%esp
  103491:	8b 45 ec             	mov    -0x14(%ebp),%eax
  103494:	2d 00 10 00 00       	sub    $0x1000,%eax
  103499:	83 ec 04             	sub    $0x4,%esp
  10349c:	6a 01                	push   $0x1
  10349e:	6a 00                	push   $0x0
  1034a0:	50                   	push   %eax
  1034a1:	e8 a7 eb ff ff       	call   10204d <map_address>
  1034a6:	83 c4 10             	add    $0x10,%esp
  1034a9:	b8 98 33 10 00       	mov    $0x103398,%eax
  1034ae:	83 ec 0c             	sub    $0xc,%esp
  1034b1:	50                   	push   %eax
  1034b2:	6a 00                	push   $0x0
  1034b4:	6a 00                	push   $0x0
  1034b6:	ff 75 ec             	push   -0x14(%ebp)
  1034b9:	ff 75 f4             	push   -0xc(%ebp)
  1034bc:	e8 08 ff ff ff       	call   1033c9 <prepare_user_stack>
  1034c1:	83 c4 20             	add    $0x20,%esp
  1034c4:	8b 45 f4             	mov    -0xc(%ebp),%eax
  1034c7:	c9                   	leave
  1034c8:	c3                   	ret

001034c9 <yieldlock_init>:
  1034c9:	55                   	push   %ebp
  1034ca:	89 e5                	mov    %esp,%ebp
  1034cc:	8b 45 08             	mov    0x8(%ebp),%eax
  1034cf:	c7 00 00 00 00 00    	movl   $0x0,(%eax)
  1034d5:	90                   	nop
  1034d6:	5d                   	pop    %ebp
  1034d7:	c3                   	ret

001034d8 <yieldlock_lock>:
  1034d8:	55                   	push   %ebp
  1034d9:	89 e5                	mov    %esp,%ebp
  1034db:	83 ec 08             	sub    $0x8,%esp
  1034de:	eb 05                	jmp    1034e5 <yieldlock_lock+0xd>
  1034e0:	e8 67 f8 ff ff       	call   102d4c <schedule_thread_yield>
  1034e5:	8b 45 08             	mov    0x8(%ebp),%eax
  1034e8:	83 ec 08             	sub    $0x8,%esp
  1034eb:	6a 01                	push   $0x1
  1034ed:	50                   	push   %eax
  1034ee:	e8 80 d0 ff ff       	call   100573 <atomic_exchange>
  1034f3:	83 c4 10             	add    $0x10,%esp
  1034f6:	85 c0                	test   %eax,%eax
  1034f8:	75 e6                	jne    1034e0 <yieldlock_lock+0x8>
  1034fa:	90                   	nop
  1034fb:	90                   	nop
  1034fc:	c9                   	leave
  1034fd:	c3                   	ret

001034fe <yieldlock_trylock>:
  1034fe:	55                   	push   %ebp
  1034ff:	89 e5                	mov    %esp,%ebp
  103501:	83 ec 08             	sub    $0x8,%esp
  103504:	8b 45 08             	mov    0x8(%ebp),%eax
  103507:	83 ec 08             	sub    $0x8,%esp
  10350a:	6a 01                	push   $0x1
  10350c:	50                   	push   %eax
  10350d:	e8 61 d0 ff ff       	call   100573 <atomic_exchange>
  103512:	83 c4 10             	add    $0x10,%esp
  103515:	85 c0                	test   %eax,%eax
  103517:	0f 94 c0             	sete   %al
  10351a:	0f b6 c0             	movzbl %al,%eax
  10351d:	c9                   	leave
  10351e:	c3                   	ret

0010351f <yieldlock_unlock>:
  10351f:	55                   	push   %ebp
  103520:	89 e5                	mov    %esp,%ebp
  103522:	8b 45 08             	mov    0x8(%ebp),%eax
  103525:	c7 00 00 00 00 00    	movl   $0x0,(%eax)
  10352b:	90                   	nop
  10352c:	5d                   	pop    %ebp
  10352d:	c3                   	ret
  10352e:	66 90                	xchg   %ax,%ax
  103530:	66 90                	xchg   %ax,%ax
  103532:	66 90                	xchg   %ax,%ax
  103534:	66 90                	xchg   %ax,%ax
  103536:	66 90                	xchg   %ax,%ax
  103538:	66 90                	xchg   %ax,%ax
  10353a:	66 90                	xchg   %ax,%ax
  10353c:	66 90                	xchg   %ax,%ax
  10353e:	66 90                	xchg   %ax,%ax
  103540:	66 90                	xchg   %ax,%ax
  103542:	66 90                	xchg   %ax,%ax
  103544:	66 90                	xchg   %ax,%ax
  103546:	66 90                	xchg   %ax,%ax
  103548:	66 90                	xchg   %ax,%ax
  10354a:	66 90                	xchg   %ax,%ax
  10354c:	66 90                	xchg   %ax,%ax
  10354e:	66 90                	xchg   %ax,%ax
  103550:	66 90                	xchg   %ax,%ax
  103552:	66 90                	xchg   %ax,%ax
  103554:	66 90                	xchg   %ax,%ax
  103556:	66 90                	xchg   %ax,%ax
  103558:	66 90                	xchg   %ax,%ax
  10355a:	66 90                	xchg   %ax,%ax
  10355c:	66 90                	xchg   %ax,%ax
  10355e:	66 90                	xchg   %ax,%ax
  103560:	66 90                	xchg   %ax,%ax
  103562:	66 90                	xchg   %ax,%ax
  103564:	66 90                	xchg   %ax,%ax
  103566:	66 90                	xchg   %ax,%ax
  103568:	66 90                	xchg   %ax,%ax
  10356a:	66 90                	xchg   %ax,%ax
  10356c:	66 90                	xchg   %ax,%ax
  10356e:	66 90                	xchg   %ax,%ax
  103570:	66 90                	xchg   %ax,%ax
  103572:	66 90                	xchg   %ax,%ax
  103574:	66 90                	xchg   %ax,%ax
  103576:	66 90                	xchg   %ax,%ax
  103578:	66 90                	xchg   %ax,%ax
  10357a:	66 90                	xchg   %ax,%ax
  10357c:	66 90                	xchg   %ax,%ax
  10357e:	66 90                	xchg   %ax,%ax
  103580:	66 90                	xchg   %ax,%ax
  103582:	66 90                	xchg   %ax,%ax
  103584:	66 90                	xchg   %ax,%ax
  103586:	66 90                	xchg   %ax,%ax
  103588:	66 90                	xchg   %ax,%ax
  10358a:	66 90                	xchg   %ax,%ax
  10358c:	66 90                	xchg   %ax,%ax
  10358e:	66 90                	xchg   %ax,%ax
  103590:	66 90                	xchg   %ax,%ax
  103592:	66 90                	xchg   %ax,%ax
  103594:	66 90                	xchg   %ax,%ax
  103596:	66 90                	xchg   %ax,%ax
  103598:	66 90                	xchg   %ax,%ax
  10359a:	66 90                	xchg   %ax,%ax
  10359c:	66 90                	xchg   %ax,%ax
  10359e:	66 90                	xchg   %ax,%ax
  1035a0:	66 90                	xchg   %ax,%ax
  1035a2:	66 90                	xchg   %ax,%ax
  1035a4:	66 90                	xchg   %ax,%ax
  1035a6:	66 90                	xchg   %ax,%ax
  1035a8:	66 90                	xchg   %ax,%ax
  1035aa:	66 90                	xchg   %ax,%ax
  1035ac:	66 90                	xchg   %ax,%ax
  1035ae:	66 90                	xchg   %ax,%ax
  1035b0:	66 90                	xchg   %ax,%ax
  1035b2:	66 90                	xchg   %ax,%ax
  1035b4:	66 90                	xchg   %ax,%ax
  1035b6:	66 90                	xchg   %ax,%ax
  1035b8:	66 90                	xchg   %ax,%ax
  1035ba:	66 90                	xchg   %ax,%ax
  1035bc:	66 90                	xchg   %ax,%ax
  1035be:	66 90                	xchg   %ax,%ax
  1035c0:	66 90                	xchg   %ax,%ax
  1035c2:	66 90                	xchg   %ax,%ax
  1035c4:	66 90                	xchg   %ax,%ax
  1035c6:	66 90                	xchg   %ax,%ax
  1035c8:	66 90                	xchg   %ax,%ax
  1035ca:	66 90                	xchg   %ax,%ax
  1035cc:	66 90                	xchg   %ax,%ax
  1035ce:	66 90                	xchg   %ax,%ax
  1035d0:	66 90                	xchg   %ax,%ax
  1035d2:	66 90                	xchg   %ax,%ax
  1035d4:	66 90                	xchg   %ax,%ax
  1035d6:	66 90                	xchg   %ax,%ax
  1035d8:	66 90                	xchg   %ax,%ax
  1035da:	66 90                	xchg   %ax,%ax
  1035dc:	66 90                	xchg   %ax,%ax
  1035de:	66 90                	xchg   %ax,%ax
  1035e0:	66 90                	xchg   %ax,%ax
  1035e2:	66 90                	xchg   %ax,%ax
  1035e4:	66 90                	xchg   %ax,%ax
  1035e6:	66 90                	xchg   %ax,%ax
  1035e8:	66 90                	xchg   %ax,%ax
  1035ea:	66 90                	xchg   %ax,%ax
  1035ec:	66 90                	xchg   %ax,%ax
  1035ee:	66 90                	xchg   %ax,%ax
  1035f0:	66 90                	xchg   %ax,%ax
  1035f2:	66 90                	xchg   %ax,%ax
  1035f4:	66 90                	xchg   %ax,%ax
  1035f6:	66 90                	xchg   %ax,%ax
  1035f8:	66 90                	xchg   %ax,%ax
  1035fa:	66 90                	xchg   %ax,%ax
  1035fc:	66 90                	xchg   %ax,%ax
  1035fe:	66 90                	xchg   %ax,%ax
  103600:	66 90                	xchg   %ax,%ax
  103602:	66 90                	xchg   %ax,%ax
  103604:	66 90                	xchg   %ax,%ax
  103606:	66 90                	xchg   %ax,%ax
  103608:	66 90                	xchg   %ax,%ax
  10360a:	66 90                	xchg   %ax,%ax
  10360c:	66 90                	xchg   %ax,%ax
  10360e:	66 90                	xchg   %ax,%ax
  103610:	66 90                	xchg   %ax,%ax
  103612:	66 90                	xchg   %ax,%ax
  103614:	66 90                	xchg   %ax,%ax
  103616:	66 90                	xchg   %ax,%ax
  103618:	66 90                	xchg   %ax,%ax
  10361a:	66 90                	xchg   %ax,%ax
  10361c:	66 90                	xchg   %ax,%ax
  10361e:	66 90                	xchg   %ax,%ax
  103620:	66 90                	xchg   %ax,%ax
  103622:	66 90                	xchg   %ax,%ax
  103624:	66 90                	xchg   %ax,%ax
  103626:	66 90                	xchg   %ax,%ax
  103628:	66 90                	xchg   %ax,%ax
  10362a:	66 90                	xchg   %ax,%ax
  10362c:	66 90                	xchg   %ax,%ax
  10362e:	66 90                	xchg   %ax,%ax
  103630:	66 90                	xchg   %ax,%ax
  103632:	66 90                	xchg   %ax,%ax
  103634:	66 90                	xchg   %ax,%ax
  103636:	66 90                	xchg   %ax,%ax
  103638:	66 90                	xchg   %ax,%ax
  10363a:	66 90                	xchg   %ax,%ax
  10363c:	66 90                	xchg   %ax,%ax
  10363e:	66 90                	xchg   %ax,%ax
  103640:	66 90                	xchg   %ax,%ax
  103642:	66 90                	xchg   %ax,%ax
  103644:	66 90                	xchg   %ax,%ax
  103646:	66 90                	xchg   %ax,%ax
  103648:	66 90                	xchg   %ax,%ax
  10364a:	66 90                	xchg   %ax,%ax
  10364c:	66 90                	xchg   %ax,%ax
  10364e:	66 90                	xchg   %ax,%ax
  103650:	66 90                	xchg   %ax,%ax
  103652:	66 90                	xchg   %ax,%ax
  103654:	66 90                	xchg   %ax,%ax
  103656:	66 90                	xchg   %ax,%ax
  103658:	66 90                	xchg   %ax,%ax
  10365a:	66 90                	xchg   %ax,%ax
  10365c:	66 90                	xchg   %ax,%ax
  10365e:	66 90                	xchg   %ax,%ax
  103660:	66 90                	xchg   %ax,%ax
  103662:	66 90                	xchg   %ax,%ax
  103664:	66 90                	xchg   %ax,%ax
  103666:	66 90                	xchg   %ax,%ax
  103668:	66 90                	xchg   %ax,%ax
  10366a:	66 90                	xchg   %ax,%ax
  10366c:	66 90                	xchg   %ax,%ax
  10366e:	66 90                	xchg   %ax,%ax
  103670:	66 90                	xchg   %ax,%ax
  103672:	66 90                	xchg   %ax,%ax
  103674:	66 90                	xchg   %ax,%ax
  103676:	66 90                	xchg   %ax,%ax
  103678:	66 90                	xchg   %ax,%ax
  10367a:	66 90                	xchg   %ax,%ax
  10367c:	66 90                	xchg   %ax,%ax
  10367e:	66 90                	xchg   %ax,%ax
  103680:	66 90                	xchg   %ax,%ax
  103682:	66 90                	xchg   %ax,%ax
  103684:	66 90                	xchg   %ax,%ax
  103686:	66 90                	xchg   %ax,%ax
  103688:	66 90                	xchg   %ax,%ax
  10368a:	66 90                	xchg   %ax,%ax
  10368c:	66 90                	xchg   %ax,%ax
  10368e:	66 90                	xchg   %ax,%ax
  103690:	66 90                	xchg   %ax,%ax
  103692:	66 90                	xchg   %ax,%ax
  103694:	66 90                	xchg   %ax,%ax
  103696:	66 90                	xchg   %ax,%ax
  103698:	66 90                	xchg   %ax,%ax
  10369a:	66 90                	xchg   %ax,%ax
  10369c:	66 90                	xchg   %ax,%ax
  10369e:	66 90                	xchg   %ax,%ax
  1036a0:	66 90                	xchg   %ax,%ax
  1036a2:	66 90                	xchg   %ax,%ax
  1036a4:	66 90                	xchg   %ax,%ax
  1036a6:	66 90                	xchg   %ax,%ax
  1036a8:	66 90                	xchg   %ax,%ax
  1036aa:	66 90                	xchg   %ax,%ax
  1036ac:	66 90                	xchg   %ax,%ax
  1036ae:	66 90                	xchg   %ax,%ax
  1036b0:	66 90                	xchg   %ax,%ax
  1036b2:	66 90                	xchg   %ax,%ax
  1036b4:	66 90                	xchg   %ax,%ax
  1036b6:	66 90                	xchg   %ax,%ax
  1036b8:	66 90                	xchg   %ax,%ax
  1036ba:	66 90                	xchg   %ax,%ax
  1036bc:	66 90                	xchg   %ax,%ax
  1036be:	66 90                	xchg   %ax,%ax
  1036c0:	66 90                	xchg   %ax,%ax
  1036c2:	66 90                	xchg   %ax,%ax
  1036c4:	66 90                	xchg   %ax,%ax
  1036c6:	66 90                	xchg   %ax,%ax
  1036c8:	66 90                	xchg   %ax,%ax
  1036ca:	66 90                	xchg   %ax,%ax
  1036cc:	66 90                	xchg   %ax,%ax
  1036ce:	66 90                	xchg   %ax,%ax
  1036d0:	66 90                	xchg   %ax,%ax
  1036d2:	66 90                	xchg   %ax,%ax
  1036d4:	66 90                	xchg   %ax,%ax
  1036d6:	66 90                	xchg   %ax,%ax
  1036d8:	66 90                	xchg   %ax,%ax
  1036da:	66 90                	xchg   %ax,%ax
  1036dc:	66 90                	xchg   %ax,%ax
  1036de:	66 90                	xchg   %ax,%ax
  1036e0:	66 90                	xchg   %ax,%ax
  1036e2:	66 90                	xchg   %ax,%ax
  1036e4:	66 90                	xchg   %ax,%ax
  1036e6:	66 90                	xchg   %ax,%ax
  1036e8:	66 90                	xchg   %ax,%ax
  1036ea:	66 90                	xchg   %ax,%ax
  1036ec:	66 90                	xchg   %ax,%ax
  1036ee:	66 90                	xchg   %ax,%ax
  1036f0:	66 90                	xchg   %ax,%ax
  1036f2:	66 90                	xchg   %ax,%ax
  1036f4:	66 90                	xchg   %ax,%ax
  1036f6:	66 90                	xchg   %ax,%ax
  1036f8:	66 90                	xchg   %ax,%ax
  1036fa:	66 90                	xchg   %ax,%ax
  1036fc:	66 90                	xchg   %ax,%ax
  1036fe:	66 90                	xchg   %ax,%ax
  103700:	66 90                	xchg   %ax,%ax
  103702:	66 90                	xchg   %ax,%ax
  103704:	66 90                	xchg   %ax,%ax
  103706:	66 90                	xchg   %ax,%ax
  103708:	66 90                	xchg   %ax,%ax
  10370a:	66 90                	xchg   %ax,%ax
  10370c:	66 90                	xchg   %ax,%ax
  10370e:	66 90                	xchg   %ax,%ax
  103710:	66 90                	xchg   %ax,%ax
  103712:	66 90                	xchg   %ax,%ax
  103714:	66 90                	xchg   %ax,%ax
  103716:	66 90                	xchg   %ax,%ax
  103718:	66 90                	xchg   %ax,%ax
  10371a:	66 90                	xchg   %ax,%ax
  10371c:	66 90                	xchg   %ax,%ax
  10371e:	66 90                	xchg   %ax,%ax
  103720:	66 90                	xchg   %ax,%ax
  103722:	66 90                	xchg   %ax,%ax
  103724:	66 90                	xchg   %ax,%ax
  103726:	66 90                	xchg   %ax,%ax
  103728:	66 90                	xchg   %ax,%ax
  10372a:	66 90                	xchg   %ax,%ax
  10372c:	66 90                	xchg   %ax,%ax
  10372e:	66 90                	xchg   %ax,%ax
  103730:	66 90                	xchg   %ax,%ax
  103732:	66 90                	xchg   %ax,%ax
  103734:	66 90                	xchg   %ax,%ax
  103736:	66 90                	xchg   %ax,%ax
  103738:	66 90                	xchg   %ax,%ax
  10373a:	66 90                	xchg   %ax,%ax
